
builds/build0/program.elf:     file format elf32-littleriscv


Disassembly of section .text:

80000000 <_start>:
80000000:	00008117          	auipc	sp,0x8
80000004:	00010113          	mv	sp,sp
80000008:	ffc10113          	addi	sp,sp,-4 # 80007ffc <_stack_bottom+0x7fc>
8000000c:	00112023          	sw	ra,0(sp)
80000010:	3e5000ef          	jal	80000bf4 <_etext>
80000014:	00012083          	lw	ra,0(sp)
80000018:	000080e7          	jalr	ra

8000001c <Proc_2>:
8000001c:	800047b7          	lui	a5,0x80004
80000020:	3c97c703          	lbu	a4,969(a5) # 800043c9 <Ch_1_Glob>
80000024:	04100793          	li	a5,65
80000028:	00f71e63          	bne	a4,a5,80000044 <Proc_2+0x28>
8000002c:	00052783          	lw	a5,0(a0)
80000030:	80004737          	lui	a4,0x80004
80000034:	3d072703          	lw	a4,976(a4) # 800043d0 <Int_Glob>
80000038:	00978793          	addi	a5,a5,9
8000003c:	40e787b3          	sub	a5,a5,a4
80000040:	00f52023          	sw	a5,0(a0)
80000044:	00008067          	ret

80000048 <Proc_3>:
80000048:	800047b7          	lui	a5,0x80004
8000004c:	3d87a703          	lw	a4,984(a5) # 800043d8 <Ptr_Glob>
80000050:	00070663          	beqz	a4,8000005c <Proc_3+0x14>
80000054:	00072703          	lw	a4,0(a4)
80000058:	00e52023          	sw	a4,0(a0)
8000005c:	3d87a603          	lw	a2,984(a5)
80000060:	800047b7          	lui	a5,0x80004
80000064:	3d07a583          	lw	a1,976(a5) # 800043d0 <Int_Glob>
80000068:	00c60613          	addi	a2,a2,12
8000006c:	00a00513          	li	a0,10
80000070:	1840006f          	j	800001f4 <Proc_7>

80000074 <Proc_1>:
80000074:	ff010113          	addi	sp,sp,-16
80000078:	00812423          	sw	s0,8(sp)
8000007c:	01212023          	sw	s2,0(sp)
80000080:	00052403          	lw	s0,0(a0)
80000084:	80004937          	lui	s2,0x80004
80000088:	3d892583          	lw	a1,984(s2) # 800043d8 <Ptr_Glob>
8000008c:	00912223          	sw	s1,4(sp)
80000090:	03000613          	li	a2,48
80000094:	00050493          	mv	s1,a0
80000098:	00040513          	mv	a0,s0
8000009c:	00112623          	sw	ra,12(sp)
800000a0:	1b4010ef          	jal	80001254 <memcpy>
800000a4:	00500793          	li	a5,5
800000a8:	00f4a623          	sw	a5,12(s1)
800000ac:	00f42623          	sw	a5,12(s0)
800000b0:	0004a783          	lw	a5,0(s1)
800000b4:	00040513          	mv	a0,s0
800000b8:	00f42023          	sw	a5,0(s0)
800000bc:	f8dff0ef          	jal	80000048 <Proc_3>
800000c0:	00442783          	lw	a5,4(s0)
800000c4:	04079463          	bnez	a5,8000010c <Proc_1+0x98>
800000c8:	0084a503          	lw	a0,8(s1)
800000cc:	00600793          	li	a5,6
800000d0:	00f42623          	sw	a5,12(s0)
800000d4:	00840593          	addi	a1,s0,8
800000d8:	0cc000ef          	jal	800001a4 <Proc_6>
800000dc:	3d892783          	lw	a5,984(s2)
800000e0:	00c42503          	lw	a0,12(s0)
800000e4:	00c40613          	addi	a2,s0,12
800000e8:	0007a783          	lw	a5,0(a5)
800000ec:	00c12083          	lw	ra,12(sp)
800000f0:	00412483          	lw	s1,4(sp)
800000f4:	00f42023          	sw	a5,0(s0)
800000f8:	00812403          	lw	s0,8(sp)
800000fc:	00012903          	lw	s2,0(sp)
80000100:	00a00593          	li	a1,10
80000104:	01010113          	addi	sp,sp,16
80000108:	0ec0006f          	j	800001f4 <Proc_7>
8000010c:	0004a583          	lw	a1,0(s1)
80000110:	00048513          	mv	a0,s1
80000114:	03000613          	li	a2,48
80000118:	13c010ef          	jal	80001254 <memcpy>
8000011c:	00c12083          	lw	ra,12(sp)
80000120:	00812403          	lw	s0,8(sp)
80000124:	00412483          	lw	s1,4(sp)
80000128:	00012903          	lw	s2,0(sp)
8000012c:	01010113          	addi	sp,sp,16
80000130:	00008067          	ret

80000134 <Proc_4>:
80000134:	800047b7          	lui	a5,0x80004
80000138:	3c97c783          	lbu	a5,969(a5) # 800043c9 <Ch_1_Glob>
8000013c:	80004737          	lui	a4,0x80004
80000140:	3cc72683          	lw	a3,972(a4) # 800043cc <Bool_Glob>
80000144:	fbf78793          	addi	a5,a5,-65
80000148:	0017b793          	seqz	a5,a5
8000014c:	00d7e7b3          	or	a5,a5,a3
80000150:	3cf72623          	sw	a5,972(a4)
80000154:	800047b7          	lui	a5,0x80004
80000158:	04200713          	li	a4,66
8000015c:	3ce78423          	sb	a4,968(a5) # 800043c8 <Ch_2_Glob>
80000160:	00008067          	ret

80000164 <Proc_5>:
80000164:	800047b7          	lui	a5,0x80004
80000168:	04100713          	li	a4,65
8000016c:	3ce784a3          	sb	a4,969(a5) # 800043c9 <Ch_1_Glob>
80000170:	800047b7          	lui	a5,0x80004
80000174:	3c07a623          	sw	zero,972(a5) # 800043cc <Bool_Glob>
80000178:	00008067          	ret

8000017c <strcmp>:
8000017c:	00054703          	lbu	a4,0(a0)
80000180:	00150513          	addi	a0,a0,1
80000184:	00158593          	addi	a1,a1,1
80000188:	fff5c783          	lbu	a5,-1(a1)
8000018c:	00071663          	bnez	a4,80000198 <strcmp+0x1c>
80000190:	40f00533          	neg	a0,a5
80000194:	00008067          	ret
80000198:	fef702e3          	beq	a4,a5,8000017c <strcmp>
8000019c:	40f70533          	sub	a0,a4,a5
800001a0:	00008067          	ret

800001a4 <Proc_6>:
800001a4:	00200793          	li	a5,2
800001a8:	00100713          	li	a4,1
800001ac:	00f51663          	bne	a0,a5,800001b8 <Proc_6+0x14>
800001b0:	00e5a023          	sw	a4,0(a1)
800001b4:	00008067          	ret
800001b8:	00300693          	li	a3,3
800001bc:	00d5a023          	sw	a3,0(a1)
800001c0:	00e50c63          	beq	a0,a4,800001d8 <Proc_6+0x34>
800001c4:	00400713          	li	a4,4
800001c8:	02e50263          	beq	a0,a4,800001ec <Proc_6+0x48>
800001cc:	00051e63          	bnez	a0,800001e8 <Proc_6+0x44>
800001d0:	0005a023          	sw	zero,0(a1)
800001d4:	00008067          	ret
800001d8:	800047b7          	lui	a5,0x80004
800001dc:	3d07a703          	lw	a4,976(a5) # 800043d0 <Int_Glob>
800001e0:	06400793          	li	a5,100
800001e4:	fee7c6e3          	blt	a5,a4,800001d0 <Proc_6+0x2c>
800001e8:	00008067          	ret
800001ec:	00f5a023          	sw	a5,0(a1)
800001f0:	00008067          	ret

800001f4 <Proc_7>:
800001f4:	00250513          	addi	a0,a0,2
800001f8:	00b50533          	add	a0,a0,a1
800001fc:	00a62023          	sw	a0,0(a2)
80000200:	00008067          	ret

80000204 <Proc_8>:
80000204:	00560713          	addi	a4,a2,5
80000208:	00271793          	slli	a5,a4,0x2
8000020c:	00f50533          	add	a0,a0,a5
80000210:	00171793          	slli	a5,a4,0x1
80000214:	00e787b3          	add	a5,a5,a4
80000218:	00379793          	slli	a5,a5,0x3
8000021c:	00e787b3          	add	a5,a5,a4
80000220:	00379793          	slli	a5,a5,0x3
80000224:	00261613          	slli	a2,a2,0x2
80000228:	00d52023          	sw	a3,0(a0)
8000022c:	00d52223          	sw	a3,4(a0)
80000230:	00c786b3          	add	a3,a5,a2
80000234:	06e52c23          	sw	a4,120(a0)
80000238:	00d586b3          	add	a3,a1,a3
8000023c:	00e6aa23          	sw	a4,20(a3)
80000240:	00e6ac23          	sw	a4,24(a3)
80000244:	0106a703          	lw	a4,16(a3)
80000248:	00f585b3          	add	a1,a1,a5
8000024c:	00c585b3          	add	a1,a1,a2
80000250:	00170713          	addi	a4,a4,1
80000254:	00e6a823          	sw	a4,16(a3)
80000258:	00052703          	lw	a4,0(a0)
8000025c:	000017b7          	lui	a5,0x1
80000260:	00b787b3          	add	a5,a5,a1
80000264:	fae7aa23          	sw	a4,-76(a5) # fb4 <_stack_size+0x7b4>
80000268:	800047b7          	lui	a5,0x80004
8000026c:	00500713          	li	a4,5
80000270:	3ce7a823          	sw	a4,976(a5) # 800043d0 <Int_Glob>
80000274:	00008067          	ret

80000278 <Func_1>:
80000278:	00b51a63          	bne	a0,a1,8000028c <Func_1+0x14>
8000027c:	800047b7          	lui	a5,0x80004
80000280:	3ca784a3          	sb	a0,969(a5) # 800043c9 <Ch_1_Glob>
80000284:	00100513          	li	a0,1
80000288:	00008067          	ret
8000028c:	00000513          	li	a0,0
80000290:	00008067          	ret

80000294 <Func_2>:
80000294:	ff010113          	addi	sp,sp,-16
80000298:	00112623          	sw	ra,12(sp)
8000029c:	00254703          	lbu	a4,2(a0)
800002a0:	0035c783          	lbu	a5,3(a1)
800002a4:	00f70063          	beq	a4,a5,800002a4 <Func_2+0x10>
800002a8:	ed5ff0ef          	jal	8000017c <strcmp>
800002ac:	00000793          	li	a5,0
800002b0:	00a05a63          	blez	a0,800002c4 <Func_2+0x30>
800002b4:	800047b7          	lui	a5,0x80004
800002b8:	00a00713          	li	a4,10
800002bc:	3ce7a823          	sw	a4,976(a5) # 800043d0 <Int_Glob>
800002c0:	00100793          	li	a5,1
800002c4:	00c12083          	lw	ra,12(sp)
800002c8:	00078513          	mv	a0,a5
800002cc:	01010113          	addi	sp,sp,16
800002d0:	00008067          	ret

800002d4 <Func_3>:
800002d4:	ffe50513          	addi	a0,a0,-2
800002d8:	00153513          	seqz	a0,a0
800002dc:	00008067          	ret

800002e0 <vOutNS16550>:
800002e0:	10000737          	lui	a4,0x10000
800002e4:	00570713          	addi	a4,a4,5 # 10000005 <_stack_size+0xffff805>
800002e8:	00074783          	lbu	a5,0(a4)
800002ec:	0207f793          	andi	a5,a5,32
800002f0:	fe078ce3          	beqz	a5,800002e8 <vOutNS16550+0x8>
800002f4:	100007b7          	lui	a5,0x10000
800002f8:	00a78023          	sb	a0,0(a5) # 10000000 <_stack_size+0xffff800>
800002fc:	00008067          	ret

80000300 <get_time>:
80000300:	0200c7b7          	lui	a5,0x200c
80000304:	ff87a503          	lw	a0,-8(a5) # 200bff8 <_stack_size+0x200b7f8>
80000308:	00008067          	ret

8000030c <getButton>:
8000030c:	890007b7          	lui	a5,0x89000
80000310:	00a787b3          	add	a5,a5,a0
80000314:	0007c503          	lbu	a0,0(a5) # 89000000 <_stack_end+0x8ff8000>
80000318:	00008067          	ret

8000031c <getButtonDown>:
8000031c:	890007b7          	lui	a5,0x89000
80000320:	0007c503          	lbu	a0,0(a5) # 89000000 <_stack_end+0x8ff8000>
80000324:	00008067          	ret

80000328 <getButtonUp>:
80000328:	890007b7          	lui	a5,0x89000
8000032c:	0017c503          	lbu	a0,1(a5) # 89000001 <_stack_end+0x8ff8001>
80000330:	00008067          	ret

80000334 <getButtonLeft>:
80000334:	890007b7          	lui	a5,0x89000
80000338:	0027c503          	lbu	a0,2(a5) # 89000002 <_stack_end+0x8ff8002>
8000033c:	00008067          	ret

80000340 <getButtonRight>:
80000340:	890007b7          	lui	a5,0x89000
80000344:	0037c503          	lbu	a0,3(a5) # 89000003 <_stack_end+0x8ff8003>
80000348:	00008067          	ret

8000034c <putch>:
8000034c:	00050793          	mv	a5,a0
80000350:	00058513          	mv	a0,a1
80000354:	0207d063          	bgez	a5,80000374 <putch+0x28>
80000358:	ff010113          	addi	sp,sp,-16
8000035c:	00112623          	sw	ra,12(sp)
80000360:	f81ff0ef          	jal	800002e0 <vOutNS16550>
80000364:	00c12083          	lw	ra,12(sp)
80000368:	00000513          	li	a0,0
8000036c:	01010113          	addi	sp,sp,16
80000370:	00008067          	ret
80000374:	4c000713          	li	a4,1216
80000378:	02f74263          	blt	a4,a5,8000039c <putch+0x50>
8000037c:	88000737          	lui	a4,0x88000
80000380:	00861613          	slli	a2,a2,0x8
80000384:	00179793          	slli	a5,a5,0x1
80000388:	00b66633          	or	a2,a2,a1
8000038c:	00e787b3          	add	a5,a5,a4
80000390:	00c79023          	sh	a2,0(a5)
80000394:	00100513          	li	a0,1
80000398:	00008067          	ret
8000039c:	00000513          	li	a0,0
800003a0:	00008067          	ret

800003a4 <printString>:
800003a4:	fe010113          	addi	sp,sp,-32
800003a8:	01312623          	sw	s3,12(sp)
800003ac:	01412423          	sw	s4,8(sp)
800003b0:	00112e23          	sw	ra,28(sp)
800003b4:	00812c23          	sw	s0,24(sp)
800003b8:	00912a23          	sw	s1,20(sp)
800003bc:	01212823          	sw	s2,16(sp)
800003c0:	01512223          	sw	s5,4(sp)
800003c4:	01612023          	sw	s6,0(sp)
800003c8:	00050a13          	mv	s4,a0
800003cc:	00058993          	mv	s3,a1
800003d0:	06060c63          	beqz	a2,80000448 <printString+0xa4>
800003d4:	00060413          	mv	s0,a2
800003d8:	00000913          	li	s2,0
800003dc:	00000493          	li	s1,0
800003e0:	00100a93          	li	s5,1
800003e4:	00f00b13          	li	s6,15
800003e8:	0280006f          	j	80000410 <printString+0x6c>
800003ec:	00040613          	mv	a2,s0
800003f0:	009a0533          	add	a0,s4,s1
800003f4:	f59ff0ef          	jal	8000034c <putch>
800003f8:	06050263          	beqz	a0,8000045c <printString+0xb8>
800003fc:	00148493          	addi	s1,s1,1
80000400:	01591863          	bne	s2,s5,80000410 <printString+0x6c>
80000404:	00140413          	addi	s0,s0,1
80000408:	0ff47413          	zext.b	s0,s0
8000040c:	048b6463          	bltu	s6,s0,80000454 <printString+0xb0>
80000410:	009987b3          	add	a5,s3,s1
80000414:	0007c583          	lbu	a1,0(a5)
80000418:	00048513          	mv	a0,s1
8000041c:	fc0598e3          	bnez	a1,800003ec <printString+0x48>
80000420:	01c12083          	lw	ra,28(sp)
80000424:	01812403          	lw	s0,24(sp)
80000428:	01412483          	lw	s1,20(sp)
8000042c:	01012903          	lw	s2,16(sp)
80000430:	00c12983          	lw	s3,12(sp)
80000434:	00812a03          	lw	s4,8(sp)
80000438:	00412a83          	lw	s5,4(sp)
8000043c:	00012b03          	lw	s6,0(sp)
80000440:	02010113          	addi	sp,sp,32
80000444:	00008067          	ret
80000448:	00100913          	li	s2,1
8000044c:	00090413          	mv	s0,s2
80000450:	f8dff06f          	j	800003dc <printString+0x38>
80000454:	00090413          	mv	s0,s2
80000458:	fb9ff06f          	j	80000410 <printString+0x6c>
8000045c:	00000513          	li	a0,0
80000460:	fc1ff06f          	j	80000420 <printString+0x7c>

80000464 <printHex>:
80000464:	fd010113          	addi	sp,sp,-48
80000468:	02812423          	sw	s0,40(sp)
8000046c:	00058413          	mv	s0,a1
80000470:	800025b7          	lui	a1,0x80002
80000474:	02912223          	sw	s1,36(sp)
80000478:	03212023          	sw	s2,32(sp)
8000047c:	b6458593          	addi	a1,a1,-1180 # 80001b64 <strcpy+0x7e8>
80000480:	00050493          	mv	s1,a0
80000484:	00060913          	mv	s2,a2
80000488:	00c10513          	addi	a0,sp,12
8000048c:	01100613          	li	a2,17
80000490:	02112623          	sw	ra,44(sp)
80000494:	5c1000ef          	jal	80001254 <memcpy>
80000498:	202027b7          	lui	a5,0x20202
8000049c:	02078793          	addi	a5,a5,32 # 20202020 <_stack_size+0x20201820>
800004a0:	00f12023          	sw	a5,0(sp)
800004a4:	00f12223          	sw	a5,4(sp)
800004a8:	00010423          	sb	zero,8(sp)
800004ac:	00700793          	li	a5,7
800004b0:	00010593          	mv	a1,sp
800004b4:	fff00693          	li	a3,-1
800004b8:	00f47713          	andi	a4,s0,15
800004bc:	02070713          	addi	a4,a4,32 # 88000020 <_stack_end+0x7ff8020>
800004c0:	00270733          	add	a4,a4,sp
800004c4:	fec74703          	lbu	a4,-20(a4)
800004c8:	00f58633          	add	a2,a1,a5
800004cc:	fff78793          	addi	a5,a5,-1
800004d0:	00e60023          	sb	a4,0(a2)
800004d4:	40445413          	srai	s0,s0,0x4
800004d8:	fed790e3          	bne	a5,a3,800004b8 <printHex+0x54>
800004dc:	00090613          	mv	a2,s2
800004e0:	00048513          	mv	a0,s1
800004e4:	ec1ff0ef          	jal	800003a4 <printString>
800004e8:	02c12083          	lw	ra,44(sp)
800004ec:	02812403          	lw	s0,40(sp)
800004f0:	02412483          	lw	s1,36(sp)
800004f4:	02012903          	lw	s2,32(sp)
800004f8:	0ff57513          	zext.b	a0,a0
800004fc:	03010113          	addi	sp,sp,48
80000500:	00008067          	ret

80000504 <printDec>:
80000504:	fc010113          	addi	sp,sp,-64
80000508:	03212823          	sw	s2,48(sp)
8000050c:	02112e23          	sw	ra,60(sp)
80000510:	02812c23          	sw	s0,56(sp)
80000514:	02912a23          	sw	s1,52(sp)
80000518:	03312623          	sw	s3,44(sp)
8000051c:	03412423          	sw	s4,40(sp)
80000520:	03512223          	sw	s5,36(sp)
80000524:	03612023          	sw	s6,32(sp)
80000528:	01712e23          	sw	s7,28(sp)
8000052c:	01812c23          	sw	s8,24(sp)
80000530:	01912a23          	sw	s9,20(sp)
80000534:	01a12823          	sw	s10,16(sp)
80000538:	00410913          	addi	s2,sp,4
8000053c:	04059863          	bnez	a1,8000058c <printDec+0x88>
80000540:	03000793          	li	a5,48
80000544:	00f11223          	sh	a5,4(sp)
80000548:	00090593          	mv	a1,s2
8000054c:	e59ff0ef          	jal	800003a4 <printString>
80000550:	03c12083          	lw	ra,60(sp)
80000554:	03812403          	lw	s0,56(sp)
80000558:	03412483          	lw	s1,52(sp)
8000055c:	03012903          	lw	s2,48(sp)
80000560:	02c12983          	lw	s3,44(sp)
80000564:	02812a03          	lw	s4,40(sp)
80000568:	02412a83          	lw	s5,36(sp)
8000056c:	02012b03          	lw	s6,32(sp)
80000570:	01c12b83          	lw	s7,28(sp)
80000574:	01812c03          	lw	s8,24(sp)
80000578:	01412c83          	lw	s9,20(sp)
8000057c:	01012d03          	lw	s10,16(sp)
80000580:	0ff57513          	zext.b	a0,a0
80000584:	04010113          	addi	sp,sp,64
80000588:	00008067          	ret
8000058c:	00050a13          	mv	s4,a0
80000590:	00060a93          	mv	s5,a2
80000594:	00000b93          	li	s7,0
80000598:	0005d663          	bgez	a1,800005a4 <printDec+0xa0>
8000059c:	40b005b3          	neg	a1,a1
800005a0:	00100b93          	li	s7,1
800005a4:	00058493          	mv	s1,a1
800005a8:	00090993          	mv	s3,s2
800005ac:	00090b13          	mv	s6,s2
800005b0:	00000413          	li	s0,0
800005b4:	00900d13          	li	s10,9
800005b8:	00a00593          	li	a1,10
800005bc:	00048513          	mv	a0,s1
800005c0:	5d0000ef          	jal	80000b90 <__umodsi3>
800005c4:	03050513          	addi	a0,a0,48
800005c8:	00ab0023          	sb	a0,0(s6)
800005cc:	00a00593          	li	a1,10
800005d0:	00048513          	mv	a0,s1
800005d4:	00048c13          	mv	s8,s1
800005d8:	570000ef          	jal	80000b48 <__hidden___udivsi3>
800005dc:	00040c93          	mv	s9,s0
800005e0:	00050493          	mv	s1,a0
800005e4:	00140413          	addi	s0,s0,1
800005e8:	001b0b13          	addi	s6,s6,1
800005ec:	fd8d66e3          	bltu	s10,s8,800005b8 <printDec+0xb4>
800005f0:	000b8c63          	beqz	s7,80000608 <printDec+0x104>
800005f4:	01040793          	addi	a5,s0,16
800005f8:	00278433          	add	s0,a5,sp
800005fc:	02d00793          	li	a5,45
80000600:	fef40a23          	sb	a5,-12(s0)
80000604:	002c8413          	addi	s0,s9,2
80000608:	01040793          	addi	a5,s0,16
8000060c:	002787b3          	add	a5,a5,sp
80000610:	fe078a23          	sb	zero,-12(a5)
80000614:	008907b3          	add	a5,s2,s0
80000618:	40145413          	srai	s0,s0,0x1
8000061c:	00890433          	add	s0,s2,s0
80000620:	fff78793          	addi	a5,a5,-1
80000624:	00899a63          	bne	s3,s0,80000638 <printDec+0x134>
80000628:	000a8613          	mv	a2,s5
8000062c:	00090593          	mv	a1,s2
80000630:	000a0513          	mv	a0,s4
80000634:	f19ff06f          	j	8000054c <printDec+0x48>
80000638:	0007c683          	lbu	a3,0(a5)
8000063c:	0009c703          	lbu	a4,0(s3)
80000640:	00198993          	addi	s3,s3,1
80000644:	fed98fa3          	sb	a3,-1(s3)
80000648:	00e78023          	sb	a4,0(a5)
8000064c:	fd5ff06f          	j	80000620 <printDec+0x11c>

80000650 <printf>:
80000650:	fa010113          	addi	sp,sp,-96
80000654:	04f12a23          	sw	a5,84(sp)
80000658:	04410793          	addi	a5,sp,68
8000065c:	02812c23          	sw	s0,56(sp)
80000660:	02912a23          	sw	s1,52(sp)
80000664:	03212823          	sw	s2,48(sp)
80000668:	03312623          	sw	s3,44(sp)
8000066c:	03412423          	sw	s4,40(sp)
80000670:	03512223          	sw	s5,36(sp)
80000674:	03612023          	sw	s6,32(sp)
80000678:	01812c23          	sw	s8,24(sp)
8000067c:	02112e23          	sw	ra,60(sp)
80000680:	01712e23          	sw	s7,28(sp)
80000684:	00050493          	mv	s1,a0
80000688:	04b12223          	sw	a1,68(sp)
8000068c:	04c12423          	sw	a2,72(sp)
80000690:	04d12623          	sw	a3,76(sp)
80000694:	04e12823          	sw	a4,80(sp)
80000698:	05012c23          	sw	a6,88(sp)
8000069c:	05112e23          	sw	a7,92(sp)
800006a0:	00f12623          	sw	a5,12(sp)
800006a4:	00000c13          	li	s8,0
800006a8:	80004437          	lui	s0,0x80004
800006ac:	00a00993          	li	s3,10
800006b0:	02500913          	li	s2,37
800006b4:	07800a13          	li	s4,120
800006b8:	06400a93          	li	s5,100
800006bc:	06300b13          	li	s6,99
800006c0:	018487b3          	add	a5,s1,s8
800006c4:	0007c583          	lbu	a1,0(a5)
800006c8:	3dc41503          	lh	a0,988(s0) # 800043dc <screenPos>
800006cc:	02059a63          	bnez	a1,80000700 <printf+0xb0>
800006d0:	03c12083          	lw	ra,60(sp)
800006d4:	03812403          	lw	s0,56(sp)
800006d8:	03412483          	lw	s1,52(sp)
800006dc:	03012903          	lw	s2,48(sp)
800006e0:	02c12983          	lw	s3,44(sp)
800006e4:	02812a03          	lw	s4,40(sp)
800006e8:	02412a83          	lw	s5,36(sp)
800006ec:	02012b03          	lw	s6,32(sp)
800006f0:	01c12b83          	lw	s7,28(sp)
800006f4:	01812c03          	lw	s8,24(sp)
800006f8:	06010113          	addi	sp,sp,96
800006fc:	00008067          	ret
80000700:	001c0b93          	addi	s7,s8,1
80000704:	01359e63          	bne	a1,s3,80000720 <printf+0xd0>
80000708:	fc057793          	andi	a5,a0,-64
8000070c:	04078793          	addi	a5,a5,64
80000710:	01079793          	slli	a5,a5,0x10
80000714:	4107d793          	srai	a5,a5,0x10
80000718:	000c0b93          	mv	s7,s8
8000071c:	0380006f          	j	80000754 <printf+0x104>
80000720:	0d259263          	bne	a1,s2,800007e4 <printf+0x194>
80000724:	0017c783          	lbu	a5,1(a5)
80000728:	03479c63          	bne	a5,s4,80000760 <printf+0x110>
8000072c:	00c12783          	lw	a5,12(sp)
80000730:	00f00613          	li	a2,15
80000734:	0007a583          	lw	a1,0(a5)
80000738:	00478713          	addi	a4,a5,4
8000073c:	00e12623          	sw	a4,12(sp)
80000740:	d25ff0ef          	jal	80000464 <printHex>
80000744:	3dc45783          	lhu	a5,988(s0)
80000748:	00f507b3          	add	a5,a0,a5
8000074c:	01079793          	slli	a5,a5,0x10
80000750:	4107d793          	srai	a5,a5,0x10
80000754:	3cf41e23          	sh	a5,988(s0)
80000758:	001b8c13          	addi	s8,s7,1
8000075c:	f65ff06f          	j	800006c0 <printf+0x70>
80000760:	03579063          	bne	a5,s5,80000780 <printf+0x130>
80000764:	00c12783          	lw	a5,12(sp)
80000768:	00f00613          	li	a2,15
8000076c:	0007a583          	lw	a1,0(a5)
80000770:	00478713          	addi	a4,a5,4
80000774:	00e12623          	sw	a4,12(sp)
80000778:	d8dff0ef          	jal	80000504 <printDec>
8000077c:	fc9ff06f          	j	80000744 <printf+0xf4>
80000780:	03679463          	bne	a5,s6,800007a8 <printf+0x158>
80000784:	00c12783          	lw	a5,12(sp)
80000788:	00f00613          	li	a2,15
8000078c:	0007c583          	lbu	a1,0(a5)
80000790:	00478713          	addi	a4,a5,4
80000794:	00e12623          	sw	a4,12(sp)
80000798:	bb5ff0ef          	jal	8000034c <putch>
8000079c:	3dc45783          	lhu	a5,988(s0)
800007a0:	00178793          	addi	a5,a5,1
800007a4:	fa9ff06f          	j	8000074c <printf+0xfc>
800007a8:	07300713          	li	a4,115
800007ac:	02e79063          	bne	a5,a4,800007cc <printf+0x17c>
800007b0:	00c12783          	lw	a5,12(sp)
800007b4:	00f00613          	li	a2,15
800007b8:	0007a583          	lw	a1,0(a5)
800007bc:	00478713          	addi	a4,a5,4
800007c0:	00e12623          	sw	a4,12(sp)
800007c4:	be1ff0ef          	jal	800003a4 <printString>
800007c8:	f7dff06f          	j	80000744 <printf+0xf4>
800007cc:	00f00613          	li	a2,15
800007d0:	00090593          	mv	a1,s2
800007d4:	b79ff0ef          	jal	8000034c <putch>
800007d8:	3dc45783          	lhu	a5,988(s0)
800007dc:	00178793          	addi	a5,a5,1
800007e0:	f31ff06f          	j	80000710 <printf+0xc0>
800007e4:	00f00613          	li	a2,15
800007e8:	fedff06f          	j	800007d4 <printf+0x184>

800007ec <printfSCR>:
800007ec:	f9010113          	addi	sp,sp,-112
800007f0:	06f12223          	sw	a5,100(sp)
800007f4:	05c10793          	addi	a5,sp,92
800007f8:	04812423          	sw	s0,72(sp)
800007fc:	04912223          	sw	s1,68(sp)
80000800:	05212023          	sw	s2,64(sp)
80000804:	03412c23          	sw	s4,56(sp)
80000808:	03512a23          	sw	s5,52(sp)
8000080c:	03612823          	sw	s6,48(sp)
80000810:	03712623          	sw	s7,44(sp)
80000814:	03812423          	sw	s8,40(sp)
80000818:	03912223          	sw	s9,36(sp)
8000081c:	03a12023          	sw	s10,32(sp)
80000820:	01b12e23          	sw	s11,28(sp)
80000824:	04112623          	sw	ra,76(sp)
80000828:	03312e23          	sw	s3,60(sp)
8000082c:	00050a93          	mv	s5,a0
80000830:	00058493          	mv	s1,a1
80000834:	00060a13          	mv	s4,a2
80000838:	04d12e23          	sw	a3,92(sp)
8000083c:	06e12023          	sw	a4,96(sp)
80000840:	07012423          	sw	a6,104(sp)
80000844:	07112623          	sw	a7,108(sp)
80000848:	00f12623          	sw	a5,12(sp)
8000084c:	00000913          	li	s2,0
80000850:	00000413          	li	s0,0
80000854:	00a00b93          	li	s7,10
80000858:	02500b13          	li	s6,37
8000085c:	07800c13          	li	s8,120
80000860:	06400c93          	li	s9,100
80000864:	06300d13          	li	s10,99
80000868:	07300d93          	li	s11,115
8000086c:	012a07b3          	add	a5,s4,s2
80000870:	0007c583          	lbu	a1,0(a5)
80000874:	04059263          	bnez	a1,800008b8 <printfSCR+0xcc>
80000878:	04c12083          	lw	ra,76(sp)
8000087c:	00040513          	mv	a0,s0
80000880:	04812403          	lw	s0,72(sp)
80000884:	04412483          	lw	s1,68(sp)
80000888:	04012903          	lw	s2,64(sp)
8000088c:	03c12983          	lw	s3,60(sp)
80000890:	03812a03          	lw	s4,56(sp)
80000894:	03412a83          	lw	s5,52(sp)
80000898:	03012b03          	lw	s6,48(sp)
8000089c:	02c12b83          	lw	s7,44(sp)
800008a0:	02812c03          	lw	s8,40(sp)
800008a4:	02412c83          	lw	s9,36(sp)
800008a8:	02012d03          	lw	s10,32(sp)
800008ac:	01c12d83          	lw	s11,28(sp)
800008b0:	07010113          	addi	sp,sp,112
800008b4:	00008067          	ret
800008b8:	00190993          	addi	s3,s2,1
800008bc:	01759a63          	bne	a1,s7,800008d0 <printfSCR+0xe4>
800008c0:	fc047413          	andi	s0,s0,-64
800008c4:	04040413          	addi	s0,s0,64
800008c8:	00090993          	mv	s3,s2
800008cc:	0740006f          	j	80000940 <printfSCR+0x154>
800008d0:	01540533          	add	a0,s0,s5
800008d4:	0b659463          	bne	a1,s6,8000097c <printfSCR+0x190>
800008d8:	0017c783          	lbu	a5,1(a5)
800008dc:	03879263          	bne	a5,s8,80000900 <printfSCR+0x114>
800008e0:	00c12783          	lw	a5,12(sp)
800008e4:	00048613          	mv	a2,s1
800008e8:	0007a583          	lw	a1,0(a5)
800008ec:	00478713          	addi	a4,a5,4
800008f0:	00e12623          	sw	a4,12(sp)
800008f4:	b71ff0ef          	jal	80000464 <printHex>
800008f8:	00a40433          	add	s0,s0,a0
800008fc:	0440006f          	j	80000940 <printfSCR+0x154>
80000900:	03979063          	bne	a5,s9,80000920 <printfSCR+0x134>
80000904:	00c12783          	lw	a5,12(sp)
80000908:	00048613          	mv	a2,s1
8000090c:	0007a583          	lw	a1,0(a5)
80000910:	00478713          	addi	a4,a5,4
80000914:	00e12623          	sw	a4,12(sp)
80000918:	bedff0ef          	jal	80000504 <printDec>
8000091c:	fddff06f          	j	800008f8 <printfSCR+0x10c>
80000920:	03a79463          	bne	a5,s10,80000948 <printfSCR+0x15c>
80000924:	00c12783          	lw	a5,12(sp)
80000928:	00048613          	mv	a2,s1
8000092c:	00140413          	addi	s0,s0,1
80000930:	0007c583          	lbu	a1,0(a5)
80000934:	00478713          	addi	a4,a5,4
80000938:	00e12623          	sw	a4,12(sp)
8000093c:	a11ff0ef          	jal	8000034c <putch>
80000940:	00198913          	addi	s2,s3,1
80000944:	f29ff06f          	j	8000086c <printfSCR+0x80>
80000948:	03b79063          	bne	a5,s11,80000968 <printfSCR+0x17c>
8000094c:	00c12783          	lw	a5,12(sp)
80000950:	00048613          	mv	a2,s1
80000954:	0007a583          	lw	a1,0(a5)
80000958:	00478713          	addi	a4,a5,4
8000095c:	00e12623          	sw	a4,12(sp)
80000960:	a45ff0ef          	jal	800003a4 <printString>
80000964:	f95ff06f          	j	800008f8 <printfSCR+0x10c>
80000968:	00048613          	mv	a2,s1
8000096c:	000b0593          	mv	a1,s6
80000970:	9ddff0ef          	jal	8000034c <putch>
80000974:	00140413          	addi	s0,s0,1
80000978:	f51ff06f          	j	800008c8 <printfSCR+0xdc>
8000097c:	00048613          	mv	a2,s1
80000980:	ff1ff06f          	j	80000970 <printfSCR+0x184>

80000984 <uart_printf>:
80000984:	fa010113          	addi	sp,sp,-96
80000988:	04f12a23          	sw	a5,84(sp)
8000098c:	04410793          	addi	a5,sp,68
80000990:	02812c23          	sw	s0,56(sp)
80000994:	02912a23          	sw	s1,52(sp)
80000998:	03212823          	sw	s2,48(sp)
8000099c:	03412423          	sw	s4,40(sp)
800009a0:	03512223          	sw	s5,36(sp)
800009a4:	03612023          	sw	s6,32(sp)
800009a8:	01712e23          	sw	s7,28(sp)
800009ac:	01812c23          	sw	s8,24(sp)
800009b0:	02112e23          	sw	ra,60(sp)
800009b4:	03312623          	sw	s3,44(sp)
800009b8:	00050913          	mv	s2,a0
800009bc:	04b12223          	sw	a1,68(sp)
800009c0:	04c12423          	sw	a2,72(sp)
800009c4:	04d12623          	sw	a3,76(sp)
800009c8:	04e12823          	sw	a4,80(sp)
800009cc:	05012c23          	sw	a6,88(sp)
800009d0:	05112e23          	sw	a7,92(sp)
800009d4:	00f12623          	sw	a5,12(sp)
800009d8:	00000493          	li	s1,0
800009dc:	00000413          	li	s0,0
800009e0:	02500a13          	li	s4,37
800009e4:	07800a93          	li	s5,120
800009e8:	06400b13          	li	s6,100
800009ec:	06300b93          	li	s7,99
800009f0:	07300c13          	li	s8,115
800009f4:	009907b3          	add	a5,s2,s1
800009f8:	0007c503          	lbu	a0,0(a5)
800009fc:	02051c63          	bnez	a0,80000a34 <uart_printf+0xb0>
80000a00:	03c12083          	lw	ra,60(sp)
80000a04:	00040513          	mv	a0,s0
80000a08:	03812403          	lw	s0,56(sp)
80000a0c:	03412483          	lw	s1,52(sp)
80000a10:	03012903          	lw	s2,48(sp)
80000a14:	02c12983          	lw	s3,44(sp)
80000a18:	02812a03          	lw	s4,40(sp)
80000a1c:	02412a83          	lw	s5,36(sp)
80000a20:	02012b03          	lw	s6,32(sp)
80000a24:	01c12b83          	lw	s7,28(sp)
80000a28:	01812c03          	lw	s8,24(sp)
80000a2c:	06010113          	addi	sp,sp,96
80000a30:	00008067          	ret
80000a34:	00148993          	addi	s3,s1,1
80000a38:	0b451063          	bne	a0,s4,80000ad8 <uart_printf+0x154>
80000a3c:	0017c783          	lbu	a5,1(a5)
80000a40:	03579663          	bne	a5,s5,80000a6c <uart_printf+0xe8>
80000a44:	00c12783          	lw	a5,12(sp)
80000a48:	00000613          	li	a2,0
80000a4c:	f9c00513          	li	a0,-100
80000a50:	0007a583          	lw	a1,0(a5)
80000a54:	00478713          	addi	a4,a5,4
80000a58:	00e12623          	sw	a4,12(sp)
80000a5c:	a09ff0ef          	jal	80000464 <printHex>
80000a60:	00a40433          	add	s0,s0,a0
80000a64:	00198493          	addi	s1,s3,1
80000a68:	f8dff06f          	j	800009f4 <uart_printf+0x70>
80000a6c:	03679263          	bne	a5,s6,80000a90 <uart_printf+0x10c>
80000a70:	00c12783          	lw	a5,12(sp)
80000a74:	00000613          	li	a2,0
80000a78:	f9c00513          	li	a0,-100
80000a7c:	0007a583          	lw	a1,0(a5)
80000a80:	00478713          	addi	a4,a5,4
80000a84:	00e12623          	sw	a4,12(sp)
80000a88:	a7dff0ef          	jal	80000504 <printDec>
80000a8c:	fd5ff06f          	j	80000a60 <uart_printf+0xdc>
80000a90:	03779063          	bne	a5,s7,80000ab0 <uart_printf+0x12c>
80000a94:	00c12783          	lw	a5,12(sp)
80000a98:	00140413          	addi	s0,s0,1
80000a9c:	0007c503          	lbu	a0,0(a5)
80000aa0:	00478713          	addi	a4,a5,4
80000aa4:	00e12623          	sw	a4,12(sp)
80000aa8:	839ff0ef          	jal	800002e0 <vOutNS16550>
80000aac:	fb9ff06f          	j	80000a64 <uart_printf+0xe0>
80000ab0:	000a0513          	mv	a0,s4
80000ab4:	03879263          	bne	a5,s8,80000ad8 <uart_printf+0x154>
80000ab8:	00c12783          	lw	a5,12(sp)
80000abc:	00000613          	li	a2,0
80000ac0:	f9c00513          	li	a0,-100
80000ac4:	0007a583          	lw	a1,0(a5)
80000ac8:	00478713          	addi	a4,a5,4
80000acc:	00e12623          	sw	a4,12(sp)
80000ad0:	8d5ff0ef          	jal	800003a4 <printString>
80000ad4:	f8dff06f          	j	80000a60 <uart_printf+0xdc>
80000ad8:	809ff0ef          	jal	800002e0 <vOutNS16550>
80000adc:	00140413          	addi	s0,s0,1
80000ae0:	00048993          	mv	s3,s1
80000ae4:	f81ff06f          	j	80000a64 <uart_printf+0xe0>

80000ae8 <clearScreen>:
80000ae8:	ff010113          	addi	sp,sp,-16
80000aec:	00812423          	sw	s0,8(sp)
80000af0:	00912223          	sw	s1,4(sp)
80000af4:	00112623          	sw	ra,12(sp)
80000af8:	00000413          	li	s0,0
80000afc:	4c000493          	li	s1,1216
80000b00:	00040513          	mv	a0,s0
80000b04:	00f00613          	li	a2,15
80000b08:	02000593          	li	a1,32
80000b0c:	00140413          	addi	s0,s0,1
80000b10:	83dff0ef          	jal	8000034c <putch>
80000b14:	fe9416e3          	bne	s0,s1,80000b00 <clearScreen+0x18>
80000b18:	00c12083          	lw	ra,12(sp)
80000b1c:	00812403          	lw	s0,8(sp)
80000b20:	800047b7          	lui	a5,0x80004
80000b24:	3c079e23          	sh	zero,988(a5) # 800043dc <screenPos>
80000b28:	00412483          	lw	s1,4(sp)
80000b2c:	01010113          	addi	sp,sp,16
80000b30:	00008067          	ret

80000b34 <resetScreenVector>:
80000b34:	800047b7          	lui	a5,0x80004
80000b38:	3c079e23          	sh	zero,988(a5) # 800043dc <screenPos>
80000b3c:	00008067          	ret

80000b40 <__divsi3>:
80000b40:	06054063          	bltz	a0,80000ba0 <__umodsi3+0x10>
80000b44:	0605c663          	bltz	a1,80000bb0 <__umodsi3+0x20>

80000b48 <__hidden___udivsi3>:
80000b48:	00058613          	mv	a2,a1
80000b4c:	00050593          	mv	a1,a0
80000b50:	fff00513          	li	a0,-1
80000b54:	02060c63          	beqz	a2,80000b8c <__hidden___udivsi3+0x44>
80000b58:	00100693          	li	a3,1
80000b5c:	00b67a63          	bgeu	a2,a1,80000b70 <__hidden___udivsi3+0x28>
80000b60:	00c05863          	blez	a2,80000b70 <__hidden___udivsi3+0x28>
80000b64:	00161613          	slli	a2,a2,0x1
80000b68:	00169693          	slli	a3,a3,0x1
80000b6c:	feb66ae3          	bltu	a2,a1,80000b60 <__hidden___udivsi3+0x18>
80000b70:	00000513          	li	a0,0
80000b74:	00c5e663          	bltu	a1,a2,80000b80 <__hidden___udivsi3+0x38>
80000b78:	40c585b3          	sub	a1,a1,a2
80000b7c:	00d56533          	or	a0,a0,a3
80000b80:	0016d693          	srli	a3,a3,0x1
80000b84:	00165613          	srli	a2,a2,0x1
80000b88:	fe0696e3          	bnez	a3,80000b74 <__hidden___udivsi3+0x2c>
80000b8c:	00008067          	ret

80000b90 <__umodsi3>:
80000b90:	00008293          	mv	t0,ra
80000b94:	fb5ff0ef          	jal	80000b48 <__hidden___udivsi3>
80000b98:	00058513          	mv	a0,a1
80000b9c:	00028067          	jr	t0
80000ba0:	40a00533          	neg	a0,a0
80000ba4:	00b04863          	bgtz	a1,80000bb4 <__umodsi3+0x24>
80000ba8:	40b005b3          	neg	a1,a1
80000bac:	f9dff06f          	j	80000b48 <__hidden___udivsi3>
80000bb0:	40b005b3          	neg	a1,a1
80000bb4:	00008293          	mv	t0,ra
80000bb8:	f91ff0ef          	jal	80000b48 <__hidden___udivsi3>
80000bbc:	40a00533          	neg	a0,a0
80000bc0:	00028067          	jr	t0

80000bc4 <__modsi3>:
80000bc4:	00008293          	mv	t0,ra
80000bc8:	0005ca63          	bltz	a1,80000bdc <__modsi3+0x18>
80000bcc:	00054c63          	bltz	a0,80000be4 <__modsi3+0x20>
80000bd0:	f79ff0ef          	jal	80000b48 <__hidden___udivsi3>
80000bd4:	00058513          	mv	a0,a1
80000bd8:	00028067          	jr	t0
80000bdc:	40b005b3          	neg	a1,a1
80000be0:	fe0558e3          	bgez	a0,80000bd0 <__modsi3+0xc>
80000be4:	40a00533          	neg	a0,a0
80000be8:	f61ff0ef          	jal	80000b48 <__hidden___udivsi3>
80000bec:	40b00533          	neg	a0,a1
80000bf0:	00028067          	jr	t0

Disassembly of section .text.startup:

80000bf4 <main>:
80000bf4:	019c05b7          	lui	a1,0x19c0
80000bf8:	80001537          	lui	a0,0x80001
80000bfc:	f6010113          	addi	sp,sp,-160
80000c00:	cc058593          	addi	a1,a1,-832 # 19bfcc0 <_stack_size+0x19bf4c0>
80000c04:	42050513          	addi	a0,a0,1056 # 80001420 <strcpy+0xa4>
80000c08:	08112e23          	sw	ra,156(sp)
80000c0c:	08812c23          	sw	s0,152(sp)
80000c10:	08912a23          	sw	s1,148(sp)
80000c14:	09212823          	sw	s2,144(sp)
80000c18:	09312623          	sw	s3,140(sp)
80000c1c:	09612023          	sw	s6,128(sp)
80000c20:	07a12823          	sw	s10,112(sp)
80000c24:	09412423          	sw	s4,136(sp)
80000c28:	09512223          	sw	s5,132(sp)
80000c2c:	07712e23          	sw	s7,124(sp)
80000c30:	07812c23          	sw	s8,120(sp)
80000c34:	07912a23          	sw	s9,116(sp)
80000c38:	07b12623          	sw	s11,108(sp)
80000c3c:	d49ff0ef          	jal	80000984 <uart_printf>
80000c40:	80001537          	lui	a0,0x80001
80000c44:	7d000593          	li	a1,2000
80000c48:	44450513          	addi	a0,a0,1092 # 80001444 <strcpy+0xc8>
80000c4c:	d39ff0ef          	jal	80000984 <uart_printf>
80000c50:	800029b7          	lui	s3,0x80002
80000c54:	b7898513          	addi	a0,s3,-1160 # 80001b78 <Rec_Type_v0.1>
80000c58:	03050793          	addi	a5,a0,48
80000c5c:	800044b7          	lui	s1,0x80004
80000c60:	3cf4ac23          	sw	a5,984(s1) # 800043d8 <Ptr_Glob>
80000c64:	00200793          	li	a5,2
80000c68:	02f52c23          	sw	a5,56(a0)
80000c6c:	80004937          	lui	s2,0x80004
80000c70:	02800793          	li	a5,40
80000c74:	800015b7          	lui	a1,0x80001
80000c78:	02f52e23          	sw	a5,60(a0)
80000c7c:	3ca92a23          	sw	a0,980(s2) # 800043d4 <Next_Ptr_Glob>
80000c80:	02a52823          	sw	a0,48(a0)
80000c84:	02052a23          	sw	zero,52(a0)
80000c88:	49058593          	addi	a1,a1,1168 # 80001490 <strcpy+0x114>
80000c8c:	04050513          	addi	a0,a0,64
80000c90:	6ec000ef          	jal	8000137c <strcpy>
80000c94:	800015b7          	lui	a1,0x80001
80000c98:	4b058593          	addi	a1,a1,1200 # 800014b0 <strcpy+0x134>
80000c9c:	02010513          	addi	a0,sp,32
80000ca0:	6dc000ef          	jal	8000137c <strcpy>
80000ca4:	80002b37          	lui	s6,0x80002
80000ca8:	80001437          	lui	s0,0x80001
80000cac:	ca0b0793          	addi	a5,s6,-864 # 80001ca0 <Arr_2_Glob>
80000cb0:	00a00713          	li	a4,10
80000cb4:	4d040513          	addi	a0,s0,1232 # 800014d0 <strcpy+0x154>
80000cb8:	64e7ae23          	sw	a4,1628(a5)
80000cbc:	cc9ff0ef          	jal	80000984 <uart_printf>
80000cc0:	80001537          	lui	a0,0x80001
80000cc4:	4d450513          	addi	a0,a0,1236 # 800014d4 <strcpy+0x158>
80000cc8:	cbdff0ef          	jal	80000984 <uart_printf>
80000ccc:	4d040513          	addi	a0,s0,1232
80000cd0:	cb5ff0ef          	jal	80000984 <uart_printf>
80000cd4:	800047b7          	lui	a5,0x80004
80000cd8:	3c47a783          	lw	a5,964(a5) # 800043c4 <Reg>
80000cdc:	b7898993          	addi	s3,s3,-1160
80000ce0:	ca0b0d13          	addi	s10,s6,-864
80000ce4:	50078c63          	beqz	a5,800011fc <main+0x608>
80000ce8:	80001537          	lui	a0,0x80001
80000cec:	50850513          	addi	a0,a0,1288 # 80001508 <strcpy+0x18c>
80000cf0:	c95ff0ef          	jal	80000984 <uart_printf>
80000cf4:	4d040513          	addi	a0,s0,1232
80000cf8:	c8dff0ef          	jal	80000984 <uart_printf>
80000cfc:	80001537          	lui	a0,0x80001
80000d00:	7d000593          	li	a1,2000
80000d04:	56850513          	addi	a0,a0,1384 # 80001568 <strcpy+0x1ec>
80000d08:	c7dff0ef          	jal	80000984 <uart_printf>
80000d0c:	df4ff0ef          	jal	80000300 <get_time>
80000d10:	80004bb7          	lui	s7,0x80004
80000d14:	3caba023          	sw	a0,960(s7) # 800043c0 <Begin_Time>
80000d18:	00100a13          	li	s4,1
80000d1c:	80004cb7          	lui	s9,0x80004
80000d20:	80001db7          	lui	s11,0x80001
80000d24:	c40ff0ef          	jal	80000164 <Proc_5>
80000d28:	c0cff0ef          	jal	80000134 <Proc_4>
80000d2c:	800015b7          	lui	a1,0x80001
80000d30:	59858593          	addi	a1,a1,1432 # 80001598 <strcpy+0x21c>
80000d34:	04010513          	addi	a0,sp,64
80000d38:	644000ef          	jal	8000137c <strcpy>
80000d3c:	00100793          	li	a5,1
80000d40:	04010593          	addi	a1,sp,64
80000d44:	02010513          	addi	a0,sp,32
80000d48:	00f12e23          	sw	a5,28(sp)
80000d4c:	d48ff0ef          	jal	80000294 <Func_2>
80000d50:	00153513          	seqz	a0,a0
80000d54:	00700793          	li	a5,7
80000d58:	3caca623          	sw	a0,972(s9) # 800043cc <Bool_Glob>
80000d5c:	01810613          	addi	a2,sp,24
80000d60:	00300593          	li	a1,3
80000d64:	00200513          	li	a0,2
80000d68:	00f12c23          	sw	a5,24(sp)
80000d6c:	c88ff0ef          	jal	800001f4 <Proc_7>
80000d70:	01812683          	lw	a3,24(sp)
80000d74:	00300613          	li	a2,3
80000d78:	ca0b0593          	addi	a1,s6,-864
80000d7c:	06098513          	addi	a0,s3,96
80000d80:	c84ff0ef          	jal	80000204 <Proc_8>
80000d84:	3d84a503          	lw	a0,984(s1)
80000d88:	04100a93          	li	s5,65
80000d8c:	80004c37          	lui	s8,0x80004
80000d90:	ae4ff0ef          	jal	80000074 <Proc_1>
80000d94:	00300713          	li	a4,3
80000d98:	3c8c4683          	lbu	a3,968(s8) # 800043c8 <Ch_2_Glob>
80000d9c:	4756f663          	bgeu	a3,s5,80001208 <main+0x614>
80000da0:	00171793          	slli	a5,a4,0x1
80000da4:	00e787b3          	add	a5,a5,a4
80000da8:	00f12623          	sw	a5,12(sp)
80000dac:	01812783          	lw	a5,24(sp)
80000db0:	00c12503          	lw	a0,12(sp)
80000db4:	001a0a13          	addi	s4,s4,1
80000db8:	00078593          	mv	a1,a5
80000dbc:	00f12423          	sw	a5,8(sp)
80000dc0:	d81ff0ef          	jal	80000b40 <__divsi3>
80000dc4:	00a12a23          	sw	a0,20(sp)
80000dc8:	00050a93          	mv	s5,a0
80000dcc:	01410513          	addi	a0,sp,20
80000dd0:	a4cff0ef          	jal	8000001c <Proc_2>
80000dd4:	7d100793          	li	a5,2001
80000dd8:	f4fa16e3          	bne	s4,a5,80000d24 <main+0x130>
80000ddc:	d24ff0ef          	jal	80000300 <get_time>
80000de0:	80004b37          	lui	s6,0x80004
80000de4:	3aab2e23          	sw	a0,956(s6) # 800043bc <End_Time>
80000de8:	80001537          	lui	a0,0x80001
80000dec:	5d850513          	addi	a0,a0,1496 # 800015d8 <strcpy+0x25c>
80000df0:	b95ff0ef          	jal	80000984 <uart_printf>
80000df4:	4d040513          	addi	a0,s0,1232
80000df8:	b8dff0ef          	jal	80000984 <uart_printf>
80000dfc:	80001537          	lui	a0,0x80001
80000e00:	5ec50513          	addi	a0,a0,1516 # 800015ec <strcpy+0x270>
80000e04:	b81ff0ef          	jal	80000984 <uart_printf>
80000e08:	4d040513          	addi	a0,s0,1232
80000e0c:	b79ff0ef          	jal	80000984 <uart_printf>
80000e10:	800047b7          	lui	a5,0x80004
80000e14:	3d07a583          	lw	a1,976(a5) # 800043d0 <Int_Glob>
80000e18:	80001537          	lui	a0,0x80001
80000e1c:	62450513          	addi	a0,a0,1572 # 80001624 <strcpy+0x2a8>
80000e20:	80001a37          	lui	s4,0x80001
80000e24:	b61ff0ef          	jal	80000984 <uart_printf>
80000e28:	00500593          	li	a1,5
80000e2c:	640a0513          	addi	a0,s4,1600 # 80001640 <strcpy+0x2c4>
80000e30:	b55ff0ef          	jal	80000984 <uart_printf>
80000e34:	3ccca583          	lw	a1,972(s9)
80000e38:	80001537          	lui	a0,0x80001
80000e3c:	65c50513          	addi	a0,a0,1628 # 8000165c <strcpy+0x2e0>
80000e40:	b45ff0ef          	jal	80000984 <uart_printf>
80000e44:	00100593          	li	a1,1
80000e48:	640a0513          	addi	a0,s4,1600
80000e4c:	b39ff0ef          	jal	80000984 <uart_printf>
80000e50:	800047b7          	lui	a5,0x80004
80000e54:	3c97c583          	lbu	a1,969(a5) # 800043c9 <Ch_1_Glob>
80000e58:	80001537          	lui	a0,0x80001
80000e5c:	67850513          	addi	a0,a0,1656 # 80001678 <strcpy+0x2fc>
80000e60:	b25ff0ef          	jal	80000984 <uart_printf>
80000e64:	80001cb7          	lui	s9,0x80001
80000e68:	04100593          	li	a1,65
80000e6c:	694c8513          	addi	a0,s9,1684 # 80001694 <strcpy+0x318>
80000e70:	b15ff0ef          	jal	80000984 <uart_printf>
80000e74:	3c8c4583          	lbu	a1,968(s8)
80000e78:	80001537          	lui	a0,0x80001
80000e7c:	6b050513          	addi	a0,a0,1712 # 800016b0 <strcpy+0x334>
80000e80:	b05ff0ef          	jal	80000984 <uart_printf>
80000e84:	04200593          	li	a1,66
80000e88:	694c8513          	addi	a0,s9,1684
80000e8c:	af9ff0ef          	jal	80000984 <uart_printf>
80000e90:	0809a583          	lw	a1,128(s3)
80000e94:	80001537          	lui	a0,0x80001
80000e98:	6cc50513          	addi	a0,a0,1740 # 800016cc <strcpy+0x350>
80000e9c:	ae9ff0ef          	jal	80000984 <uart_printf>
80000ea0:	00700593          	li	a1,7
80000ea4:	640a0513          	addi	a0,s4,1600
80000ea8:	addff0ef          	jal	80000984 <uart_printf>
80000eac:	65cd2583          	lw	a1,1628(s10)
80000eb0:	80001537          	lui	a0,0x80001
80000eb4:	6e850513          	addi	a0,a0,1768 # 800016e8 <strcpy+0x36c>
80000eb8:	acdff0ef          	jal	80000984 <uart_printf>
80000ebc:	80001537          	lui	a0,0x80001
80000ec0:	70450513          	addi	a0,a0,1796 # 80001704 <strcpy+0x388>
80000ec4:	ac1ff0ef          	jal	80000984 <uart_printf>
80000ec8:	80001537          	lui	a0,0x80001
80000ecc:	73050513          	addi	a0,a0,1840 # 80001730 <strcpy+0x3b4>
80000ed0:	ab5ff0ef          	jal	80000984 <uart_printf>
80000ed4:	3d84a783          	lw	a5,984(s1)
80000ed8:	80001db7          	lui	s11,0x80001
80000edc:	740d8513          	addi	a0,s11,1856 # 80001740 <strcpy+0x3c4>
80000ee0:	0007a583          	lw	a1,0(a5)
80000ee4:	80001d37          	lui	s10,0x80001
80000ee8:	80001cb7          	lui	s9,0x80001
80000eec:	a99ff0ef          	jal	80000984 <uart_printf>
80000ef0:	80001537          	lui	a0,0x80001
80000ef4:	75c50513          	addi	a0,a0,1884 # 8000175c <strcpy+0x3e0>
80000ef8:	a8dff0ef          	jal	80000984 <uart_printf>
80000efc:	3d84a783          	lw	a5,984(s1)
80000f00:	790d0513          	addi	a0,s10,1936 # 80001790 <strcpy+0x414>
80000f04:	80001c37          	lui	s8,0x80001
80000f08:	0047a583          	lw	a1,4(a5)
80000f0c:	800019b7          	lui	s3,0x80001
80000f10:	a75ff0ef          	jal	80000984 <uart_printf>
80000f14:	00000593          	li	a1,0
80000f18:	640a0513          	addi	a0,s4,1600
80000f1c:	a69ff0ef          	jal	80000984 <uart_printf>
80000f20:	3d84a783          	lw	a5,984(s1)
80000f24:	7acc8513          	addi	a0,s9,1964 # 800017ac <strcpy+0x430>
80000f28:	0087a583          	lw	a1,8(a5)
80000f2c:	a59ff0ef          	jal	80000984 <uart_printf>
80000f30:	00200593          	li	a1,2
80000f34:	640a0513          	addi	a0,s4,1600
80000f38:	a4dff0ef          	jal	80000984 <uart_printf>
80000f3c:	3d84a783          	lw	a5,984(s1)
80000f40:	7c8c0513          	addi	a0,s8,1992 # 800017c8 <strcpy+0x44c>
80000f44:	00c7a583          	lw	a1,12(a5)
80000f48:	a3dff0ef          	jal	80000984 <uart_printf>
80000f4c:	01100593          	li	a1,17
80000f50:	640a0513          	addi	a0,s4,1600
80000f54:	a31ff0ef          	jal	80000984 <uart_printf>
80000f58:	3d84a583          	lw	a1,984(s1)
80000f5c:	7e498513          	addi	a0,s3,2020 # 800017e4 <strcpy+0x468>
80000f60:	800024b7          	lui	s1,0x80002
80000f64:	01058593          	addi	a1,a1,16
80000f68:	a1dff0ef          	jal	80000984 <uart_printf>
80000f6c:	80048513          	addi	a0,s1,-2048 # 80001800 <strcpy+0x484>
80000f70:	a15ff0ef          	jal	80000984 <uart_printf>
80000f74:	80002537          	lui	a0,0x80002
80000f78:	83850513          	addi	a0,a0,-1992 # 80001838 <strcpy+0x4bc>
80000f7c:	a09ff0ef          	jal	80000984 <uart_printf>
80000f80:	3d492783          	lw	a5,980(s2)
80000f84:	740d8513          	addi	a0,s11,1856
80000f88:	0007a583          	lw	a1,0(a5)
80000f8c:	9f9ff0ef          	jal	80000984 <uart_printf>
80000f90:	80002537          	lui	a0,0x80002
80000f94:	84c50513          	addi	a0,a0,-1972 # 8000184c <strcpy+0x4d0>
80000f98:	9edff0ef          	jal	80000984 <uart_printf>
80000f9c:	3d492783          	lw	a5,980(s2)
80000fa0:	790d0513          	addi	a0,s10,1936
80000fa4:	0047a583          	lw	a1,4(a5)
80000fa8:	9ddff0ef          	jal	80000984 <uart_printf>
80000fac:	00000593          	li	a1,0
80000fb0:	640a0513          	addi	a0,s4,1600
80000fb4:	9d1ff0ef          	jal	80000984 <uart_printf>
80000fb8:	3d492783          	lw	a5,980(s2)
80000fbc:	7acc8513          	addi	a0,s9,1964
80000fc0:	0087a583          	lw	a1,8(a5)
80000fc4:	9c1ff0ef          	jal	80000984 <uart_printf>
80000fc8:	00100593          	li	a1,1
80000fcc:	640a0513          	addi	a0,s4,1600
80000fd0:	9b5ff0ef          	jal	80000984 <uart_printf>
80000fd4:	3d492783          	lw	a5,980(s2)
80000fd8:	7c8c0513          	addi	a0,s8,1992
80000fdc:	00c7a583          	lw	a1,12(a5)
80000fe0:	9a5ff0ef          	jal	80000984 <uart_printf>
80000fe4:	01200593          	li	a1,18
80000fe8:	640a0513          	addi	a0,s4,1600
80000fec:	999ff0ef          	jal	80000984 <uart_printf>
80000ff0:	3d492583          	lw	a1,980(s2)
80000ff4:	7e498513          	addi	a0,s3,2020
80000ff8:	80004937          	lui	s2,0x80004
80000ffc:	01058593          	addi	a1,a1,16
80001000:	985ff0ef          	jal	80000984 <uart_printf>
80001004:	80048513          	addi	a0,s1,-2048
80001008:	97dff0ef          	jal	80000984 <uart_printf>
8000100c:	01412583          	lw	a1,20(sp)
80001010:	80002537          	lui	a0,0x80002
80001014:	89050513          	addi	a0,a0,-1904 # 80001890 <strcpy+0x514>
80001018:	96dff0ef          	jal	80000984 <uart_printf>
8000101c:	00500593          	li	a1,5
80001020:	640a0513          	addi	a0,s4,1600
80001024:	961ff0ef          	jal	80000984 <uart_printf>
80001028:	00812703          	lw	a4,8(sp)
8000102c:	00c12783          	lw	a5,12(sp)
80001030:	80002537          	lui	a0,0x80002
80001034:	8ac50513          	addi	a0,a0,-1876 # 800018ac <strcpy+0x530>
80001038:	40e787b3          	sub	a5,a5,a4
8000103c:	00379593          	slli	a1,a5,0x3
80001040:	40f585b3          	sub	a1,a1,a5
80001044:	415585b3          	sub	a1,a1,s5
80001048:	93dff0ef          	jal	80000984 <uart_printf>
8000104c:	00d00593          	li	a1,13
80001050:	640a0513          	addi	a0,s4,1600
80001054:	931ff0ef          	jal	80000984 <uart_printf>
80001058:	01812583          	lw	a1,24(sp)
8000105c:	80002537          	lui	a0,0x80002
80001060:	8c850513          	addi	a0,a0,-1848 # 800018c8 <strcpy+0x54c>
80001064:	921ff0ef          	jal	80000984 <uart_printf>
80001068:	00700593          	li	a1,7
8000106c:	640a0513          	addi	a0,s4,1600
80001070:	915ff0ef          	jal	80000984 <uart_printf>
80001074:	01c12583          	lw	a1,28(sp)
80001078:	80002537          	lui	a0,0x80002
8000107c:	8e450513          	addi	a0,a0,-1820 # 800018e4 <strcpy+0x568>
80001080:	905ff0ef          	jal	80000984 <uart_printf>
80001084:	00100593          	li	a1,1
80001088:	640a0513          	addi	a0,s4,1600
8000108c:	8f9ff0ef          	jal	80000984 <uart_printf>
80001090:	80002537          	lui	a0,0x80002
80001094:	02010593          	addi	a1,sp,32
80001098:	90050513          	addi	a0,a0,-1792 # 80001900 <strcpy+0x584>
8000109c:	8e9ff0ef          	jal	80000984 <uart_printf>
800010a0:	80002537          	lui	a0,0x80002
800010a4:	91c50513          	addi	a0,a0,-1764 # 8000191c <strcpy+0x5a0>
800010a8:	8ddff0ef          	jal	80000984 <uart_printf>
800010ac:	80002537          	lui	a0,0x80002
800010b0:	04010593          	addi	a1,sp,64
800010b4:	95450513          	addi	a0,a0,-1708 # 80001954 <strcpy+0x5d8>
800010b8:	8cdff0ef          	jal	80000984 <uart_printf>
800010bc:	80002537          	lui	a0,0x80002
800010c0:	97050513          	addi	a0,a0,-1680 # 80001970 <strcpy+0x5f4>
800010c4:	8c1ff0ef          	jal	80000984 <uart_printf>
800010c8:	4d040513          	addi	a0,s0,1232
800010cc:	8b9ff0ef          	jal	80000984 <uart_printf>
800010d0:	3c0ba703          	lw	a4,960(s7)
800010d4:	3bcb2783          	lw	a5,956(s6)
800010d8:	019c05b7          	lui	a1,0x19c0
800010dc:	cc058593          	addi	a1,a1,-832 # 19bfcc0 <_stack_size+0x19bf4c0>
800010e0:	40e787b3          	sub	a5,a5,a4
800010e4:	00579513          	slli	a0,a5,0x5
800010e8:	40f50533          	sub	a0,a0,a5
800010ec:	00251513          	slli	a0,a0,0x2
800010f0:	00f50533          	add	a0,a0,a5
800010f4:	00251513          	slli	a0,a0,0x2
800010f8:	3af92c23          	sw	a5,952(s2) # 800043b8 <User_Time>
800010fc:	a45ff0ef          	jal	80000b40 <__divsi3>
80001100:	00050593          	mv	a1,a0
80001104:	80002537          	lui	a0,0x80002
80001108:	9a850513          	addi	a0,a0,-1624 # 800019a8 <strcpy+0x62c>
8000110c:	879ff0ef          	jal	80000984 <uart_printf>
80001110:	3b892503          	lw	a0,952(s2)
80001114:	7d000593          	li	a1,2000
80001118:	a29ff0ef          	jal	80000b40 <__divsi3>
8000111c:	00050593          	mv	a1,a0
80001120:	019c0537          	lui	a0,0x19c0
80001124:	cc050513          	addi	a0,a0,-832 # 19bfcc0 <_stack_size+0x19bf4c0>
80001128:	a19ff0ef          	jal	80000b40 <__divsi3>
8000112c:	00050493          	mv	s1,a0
80001130:	00050593          	mv	a1,a0
80001134:	80002537          	lui	a0,0x80002
80001138:	9dc50513          	addi	a0,a0,-1572 # 800019dc <strcpy+0x660>
8000113c:	849ff0ef          	jal	80000984 <uart_printf>
80001140:	80002537          	lui	a0,0x80002
80001144:	a1050513          	addi	a0,a0,-1520 # 80001a10 <strcpy+0x694>
80001148:	83dff0ef          	jal	80000984 <uart_printf>
8000114c:	3b892583          	lw	a1,952(s2)
80001150:	80002537          	lui	a0,0x80002
80001154:	a4850513          	addi	a0,a0,-1464 # 80001a48 <strcpy+0x6cc>
80001158:	82dff0ef          	jal	80000984 <uart_printf>
8000115c:	019c05b7          	lui	a1,0x19c0
80001160:	80002537          	lui	a0,0x80002
80001164:	cc058593          	addi	a1,a1,-832 # 19bfcc0 <_stack_size+0x19bf4c0>
80001168:	a6850513          	addi	a0,a0,-1432 # 80001a68 <strcpy+0x6ec>
8000116c:	819ff0ef          	jal	80000984 <uart_printf>
80001170:	80002537          	lui	a0,0x80002
80001174:	7d000593          	li	a1,2000
80001178:	a8850513          	addi	a0,a0,-1400 # 80001a88 <strcpy+0x70c>
8000117c:	809ff0ef          	jal	80000984 <uart_printf>
80001180:	4d040513          	addi	a0,s0,1232
80001184:	801ff0ef          	jal	80000984 <uart_printf>
80001188:	80002537          	lui	a0,0x80002
8000118c:	00048593          	mv	a1,s1
80001190:	aa850513          	addi	a0,a0,-1368 # 80001aa8 <strcpy+0x72c>
80001194:	ff0ff0ef          	jal	80000984 <uart_printf>
80001198:	01b00593          	li	a1,27
8000119c:	00048513          	mv	a0,s1
800011a0:	9a9ff0ef          	jal	80000b48 <__hidden___udivsi3>
800011a4:	00050593          	mv	a1,a0
800011a8:	00050913          	mv	s2,a0
800011ac:	80002537          	lui	a0,0x80002
800011b0:	ac850513          	addi	a0,a0,-1336 # 80001ac8 <strcpy+0x74c>
800011b4:	fd0ff0ef          	jal	80000984 <uart_printf>
800011b8:	4d040513          	addi	a0,s0,1232
800011bc:	fc8ff0ef          	jal	80000984 <uart_printf>
800011c0:	6dd00593          	li	a1,1757
800011c4:	00048513          	mv	a0,s1
800011c8:	981ff0ef          	jal	80000b48 <__hidden___udivsi3>
800011cc:	00050593          	mv	a1,a0
800011d0:	80002537          	lui	a0,0x80002
800011d4:	ae850513          	addi	a0,a0,-1304 # 80001ae8 <strcpy+0x76c>
800011d8:	facff0ef          	jal	80000984 <uart_printf>
800011dc:	80002537          	lui	a0,0x80002
800011e0:	00090593          	mv	a1,s2
800011e4:	b0850513          	addi	a0,a0,-1272 # 80001b08 <strcpy+0x78c>
800011e8:	f9cff0ef          	jal	80000984 <uart_printf>
800011ec:	80002537          	lui	a0,0x80002
800011f0:	b2c50513          	addi	a0,a0,-1236 # 80001b2c <strcpy+0x7b0>
800011f4:	c5cff0ef          	jal	80000650 <printf>
800011f8:	0000006f          	j	800011f8 <main+0x604>
800011fc:	80001537          	lui	a0,0x80001
80001200:	53850513          	addi	a0,a0,1336 # 80001538 <strcpy+0x1bc>
80001204:	aedff06f          	j	80000cf0 <main+0xfc>
80001208:	04300593          	li	a1,67
8000120c:	000a8513          	mv	a0,s5
80001210:	00e12423          	sw	a4,8(sp)
80001214:	864ff0ef          	jal	80000278 <Func_1>
80001218:	01c12683          	lw	a3,28(sp)
8000121c:	00812703          	lw	a4,8(sp)
80001220:	02d51463          	bne	a0,a3,80001248 <main+0x654>
80001224:	01c10593          	addi	a1,sp,28
80001228:	00000513          	li	a0,0
8000122c:	f79fe0ef          	jal	800001a4 <Proc_6>
80001230:	5b8d8593          	addi	a1,s11,1464
80001234:	04010513          	addi	a0,sp,64
80001238:	144000ef          	jal	8000137c <strcpy>
8000123c:	800047b7          	lui	a5,0x80004
80001240:	3d47a823          	sw	s4,976(a5) # 800043d0 <Int_Glob>
80001244:	000a0713          	mv	a4,s4
80001248:	001a8793          	addi	a5,s5,1
8000124c:	0ff7fa93          	zext.b	s5,a5
80001250:	b49ff06f          	j	80000d98 <main+0x1a4>

Disassembly of section .text.memcpy:

80001254 <memcpy>:
80001254:	00a5c7b3          	xor	a5,a1,a0
80001258:	0037f793          	andi	a5,a5,3
8000125c:	00c508b3          	add	a7,a0,a2
80001260:	06079663          	bnez	a5,800012cc <memcpy+0x78>
80001264:	00300793          	li	a5,3
80001268:	06c7f263          	bgeu	a5,a2,800012cc <memcpy+0x78>
8000126c:	00357793          	andi	a5,a0,3
80001270:	00050713          	mv	a4,a0
80001274:	0c079a63          	bnez	a5,80001348 <memcpy+0xf4>
80001278:	ffc8f613          	andi	a2,a7,-4
8000127c:	40e606b3          	sub	a3,a2,a4
80001280:	02000793          	li	a5,32
80001284:	06d7c463          	blt	a5,a3,800012ec <memcpy+0x98>
80001288:	00058693          	mv	a3,a1
8000128c:	00070793          	mv	a5,a4
80001290:	02c77a63          	bgeu	a4,a2,800012c4 <memcpy+0x70>
80001294:	0006a803          	lw	a6,0(a3)
80001298:	00478793          	addi	a5,a5,4
8000129c:	00468693          	addi	a3,a3,4
800012a0:	ff07ae23          	sw	a6,-4(a5)
800012a4:	fec7e8e3          	bltu	a5,a2,80001294 <memcpy+0x40>
800012a8:	fff60613          	addi	a2,a2,-1
800012ac:	40e60633          	sub	a2,a2,a4
800012b0:	ffc67613          	andi	a2,a2,-4
800012b4:	00458593          	addi	a1,a1,4
800012b8:	00470713          	addi	a4,a4,4
800012bc:	00c585b3          	add	a1,a1,a2
800012c0:	00c70733          	add	a4,a4,a2
800012c4:	01176863          	bltu	a4,a7,800012d4 <memcpy+0x80>
800012c8:	00008067          	ret
800012cc:	00050713          	mv	a4,a0
800012d0:	ff157ce3          	bgeu	a0,a7,800012c8 <memcpy+0x74>
800012d4:	0005c783          	lbu	a5,0(a1)
800012d8:	00170713          	addi	a4,a4,1
800012dc:	00158593          	addi	a1,a1,1
800012e0:	fef70fa3          	sb	a5,-1(a4)
800012e4:	fee898e3          	bne	a7,a4,800012d4 <memcpy+0x80>
800012e8:	00008067          	ret
800012ec:	0205a683          	lw	a3,32(a1)
800012f0:	0005a383          	lw	t2,0(a1)
800012f4:	0045a283          	lw	t0,4(a1)
800012f8:	0085af83          	lw	t6,8(a1)
800012fc:	00c5af03          	lw	t5,12(a1)
80001300:	0105ae83          	lw	t4,16(a1)
80001304:	0145ae03          	lw	t3,20(a1)
80001308:	0185a303          	lw	t1,24(a1)
8000130c:	01c5a803          	lw	a6,28(a1)
80001310:	02470713          	addi	a4,a4,36
80001314:	fed72e23          	sw	a3,-4(a4)
80001318:	fc772e23          	sw	t2,-36(a4)
8000131c:	40e606b3          	sub	a3,a2,a4
80001320:	fe572023          	sw	t0,-32(a4)
80001324:	fff72223          	sw	t6,-28(a4)
80001328:	ffe72423          	sw	t5,-24(a4)
8000132c:	ffd72623          	sw	t4,-20(a4)
80001330:	ffc72823          	sw	t3,-16(a4)
80001334:	fe672a23          	sw	t1,-12(a4)
80001338:	ff072c23          	sw	a6,-8(a4)
8000133c:	02458593          	addi	a1,a1,36
80001340:	fad7c6e3          	blt	a5,a3,800012ec <memcpy+0x98>
80001344:	f45ff06f          	j	80001288 <memcpy+0x34>
80001348:	0005c683          	lbu	a3,0(a1)
8000134c:	00170713          	addi	a4,a4,1
80001350:	00377793          	andi	a5,a4,3
80001354:	fed70fa3          	sb	a3,-1(a4)
80001358:	00158593          	addi	a1,a1,1
8000135c:	f0078ee3          	beqz	a5,80001278 <memcpy+0x24>
80001360:	0005c683          	lbu	a3,0(a1)
80001364:	00170713          	addi	a4,a4,1
80001368:	00377793          	andi	a5,a4,3
8000136c:	fed70fa3          	sb	a3,-1(a4)
80001370:	00158593          	addi	a1,a1,1
80001374:	fc079ae3          	bnez	a5,80001348 <memcpy+0xf4>
80001378:	f01ff06f          	j	80001278 <memcpy+0x24>

Disassembly of section .text.strcpy:

8000137c <strcpy>:
8000137c:	00b567b3          	or	a5,a0,a1
80001380:	0037f793          	andi	a5,a5,3
80001384:	08079063          	bnez	a5,80001404 <strcpy+0x88>
80001388:	0005a703          	lw	a4,0(a1)
8000138c:	7f7f86b7          	lui	a3,0x7f7f8
80001390:	f7f68693          	addi	a3,a3,-129 # 7f7f7f7f <_stack_size+0x7f7f777f>
80001394:	00d77833          	and	a6,a4,a3
80001398:	00d80833          	add	a6,a6,a3
8000139c:	00e86833          	or	a6,a6,a4
800013a0:	00d86833          	or	a6,a6,a3
800013a4:	fff00793          	li	a5,-1
800013a8:	00050613          	mv	a2,a0
800013ac:	02f81463          	bne	a6,a5,800013d4 <strcpy+0x58>
800013b0:	00458593          	addi	a1,a1,4
800013b4:	00e62023          	sw	a4,0(a2)
800013b8:	0005a703          	lw	a4,0(a1)
800013bc:	00460613          	addi	a2,a2,4
800013c0:	00d777b3          	and	a5,a4,a3
800013c4:	00d787b3          	add	a5,a5,a3
800013c8:	00e7e7b3          	or	a5,a5,a4
800013cc:	00d7e7b3          	or	a5,a5,a3
800013d0:	ff0780e3          	beq	a5,a6,800013b0 <strcpy+0x34>
800013d4:	0005c783          	lbu	a5,0(a1)
800013d8:	0015c703          	lbu	a4,1(a1)
800013dc:	0025c683          	lbu	a3,2(a1)
800013e0:	00f60023          	sb	a5,0(a2)
800013e4:	00078a63          	beqz	a5,800013f8 <strcpy+0x7c>
800013e8:	00e600a3          	sb	a4,1(a2)
800013ec:	00070663          	beqz	a4,800013f8 <strcpy+0x7c>
800013f0:	00d60123          	sb	a3,2(a2)
800013f4:	00069463          	bnez	a3,800013fc <strcpy+0x80>
800013f8:	00008067          	ret
800013fc:	000601a3          	sb	zero,3(a2)
80001400:	00008067          	ret
80001404:	00050793          	mv	a5,a0
80001408:	0005c703          	lbu	a4,0(a1)
8000140c:	00178793          	addi	a5,a5,1
80001410:	00158593          	addi	a1,a1,1
80001414:	fee78fa3          	sb	a4,-1(a5)
80001418:	fe0718e3          	bnez	a4,80001408 <strcpy+0x8c>
8000141c:	00008067          	ret
