
builds/build0/program.elf:     file format elf32-littleriscv


Disassembly of section .text:

00400000 <_start>:
  400000:	00002117          	auipc	sp,0x2
  400004:	a0010113          	addi	sp,sp,-1536 # 401a00 <_stack_top>
  400008:	ffc10113          	addi	sp,sp,-4
  40000c:	00112023          	sw	ra,0(sp)
  400010:	09d000ef          	jal	4008ac <_etext>
  400014:	00012083          	lw	ra,0(sp)
  400018:	000080e7          	jalr	ra

0040001c <getUSBModifier>:
  40001c:	100007b7          	lui	a5,0x10000
  400020:	0027c503          	lbu	a0,2(a5) # 10000002 <_stack_end+0xfbfe002>
  400024:	00008067          	ret

00400028 <getUSBType>:
  400028:	100007b7          	lui	a5,0x10000
  40002c:	0017c503          	lbu	a0,1(a5) # 10000001 <_stack_end+0xfbfe001>
  400030:	00008067          	ret

00400034 <getUSBint>:
  400034:	100007b7          	lui	a5,0x10000
  400038:	0007a503          	lw	a0,0(a5) # 10000000 <_stack_end+0xfbfe000>
  40003c:	00008067          	ret

00400040 <USBParser>:
  400040:	ffc50793          	addi	a5,a0,-4
  400044:	0ff7f793          	zext.b	a5,a5
  400048:	04100713          	li	a4,65
  40004c:	00f76e63          	bltu	a4,a5,400068 <USBParser+0x28>
  400050:	00400737          	lui	a4,0x400
  400054:	00279793          	slli	a5,a5,0x2
  400058:	79070713          	addi	a4,a4,1936 # 400790 <resetScreenVector+0xc>
  40005c:	00e787b3          	add	a5,a5,a4
  400060:	0007a783          	lw	a5,0(a5)
  400064:	00078067          	jr	a5
  400068:	00000513          	li	a0,0
  40006c:	00008067          	ret
  400070:	05d50513          	addi	a0,a0,93
  400074:	0ff57513          	zext.b	a0,a0
  400078:	00008067          	ret
  40007c:	01350513          	addi	a0,a0,19
  400080:	ff5ff06f          	j	400074 <USBParser+0x34>
  400084:	01b00513          	li	a0,27
  400088:	00008067          	ret
  40008c:	00800513          	li	a0,8
  400090:	00008067          	ret
  400094:	00900513          	li	a0,9
  400098:	00008067          	ret
  40009c:	02000513          	li	a0,32
  4000a0:	00008067          	ret
  4000a4:	03d00513          	li	a0,61
  4000a8:	00008067          	ret
  4000ac:	05b00513          	li	a0,91
  4000b0:	00008067          	ret
  4000b4:	05d00513          	li	a0,93
  4000b8:	00008067          	ret
  4000bc:	05c00513          	li	a0,92
  4000c0:	00008067          	ret
  4000c4:	03b00513          	li	a0,59
  4000c8:	00008067          	ret
  4000cc:	02700513          	li	a0,39
  4000d0:	00008067          	ret
  4000d4:	06000513          	li	a0,96
  4000d8:	00008067          	ret
  4000dc:	02c00513          	li	a0,44
  4000e0:	00008067          	ret
  4000e4:	02e00513          	li	a0,46
  4000e8:	00008067          	ret
  4000ec:	02f00513          	li	a0,47
  4000f0:	00008067          	ret
  4000f4:	04600513          	li	a0,70
  4000f8:	00008067          	ret
  4000fc:	00a00513          	li	a0,10
  400100:	00008067          	ret

00400104 <memcpy>:
  400104:	00000793          	li	a5,0
  400108:	00c7c463          	blt	a5,a2,400110 <memcpy+0xc>
  40010c:	00008067          	ret
  400110:	00f58733          	add	a4,a1,a5
  400114:	00074683          	lbu	a3,0(a4)
  400118:	00f50733          	add	a4,a0,a5
  40011c:	00178793          	addi	a5,a5,1
  400120:	00d70023          	sb	a3,0(a4)
  400124:	fe5ff06f          	j	400108 <memcpy+0x4>

00400128 <memset>:
  400128:	00c50633          	add	a2,a0,a2
  40012c:	00050793          	mv	a5,a0
  400130:	00c79463          	bne	a5,a2,400138 <memset+0x10>
  400134:	00008067          	ret
  400138:	00178793          	addi	a5,a5,1
  40013c:	feb78fa3          	sb	a1,-1(a5)
  400140:	ff1ff06f          	j	400130 <memset+0x8>

00400144 <getButtonDown>:
  400144:	890007b7          	lui	a5,0x89000
  400148:	0007c503          	lbu	a0,0(a5) # 89000000 <_stack_end+0x88bfe000>
  40014c:	00008067          	ret

00400150 <getButtonUp>:
  400150:	890007b7          	lui	a5,0x89000
  400154:	0017c503          	lbu	a0,1(a5) # 89000001 <_stack_end+0x88bfe001>
  400158:	00008067          	ret

0040015c <getButtonLeft>:
  40015c:	890007b7          	lui	a5,0x89000
  400160:	0027c503          	lbu	a0,2(a5) # 89000002 <_stack_end+0x88bfe002>
  400164:	00008067          	ret

00400168 <getButtonRight>:
  400168:	890007b7          	lui	a5,0x89000
  40016c:	0037c503          	lbu	a0,3(a5) # 89000003 <_stack_end+0x88bfe003>
  400170:	00008067          	ret

00400174 <putch>:
  400174:	4c000793          	li	a5,1216
  400178:	02a7e263          	bltu	a5,a0,40019c <putch+0x28>
  40017c:	00861613          	slli	a2,a2,0x8
  400180:	00151513          	slli	a0,a0,0x1
  400184:	880007b7          	lui	a5,0x88000
  400188:	00a787b3          	add	a5,a5,a0
  40018c:	00b665b3          	or	a1,a2,a1
  400190:	00b79023          	sh	a1,0(a5) # 88000000 <_stack_end+0x87bfe000>
  400194:	00100513          	li	a0,1
  400198:	00008067          	ret
  40019c:	00000513          	li	a0,0
  4001a0:	00008067          	ret

004001a4 <printString>:
  4001a4:	fe010113          	addi	sp,sp,-32
  4001a8:	01212823          	sw	s2,16(sp)
  4001ac:	01312623          	sw	s3,12(sp)
  4001b0:	00112e23          	sw	ra,28(sp)
  4001b4:	00812c23          	sw	s0,24(sp)
  4001b8:	00912a23          	sw	s1,20(sp)
  4001bc:	01412423          	sw	s4,8(sp)
  4001c0:	01512223          	sw	s5,4(sp)
  4001c4:	01612023          	sw	s6,0(sp)
  4001c8:	00050993          	mv	s3,a0
  4001cc:	00058913          	mv	s2,a1
  4001d0:	06060c63          	beqz	a2,400248 <printString+0xa4>
  4001d4:	00060413          	mv	s0,a2
  4001d8:	00000a13          	li	s4,0
  4001dc:	00000493          	li	s1,0
  4001e0:	00100a93          	li	s5,1
  4001e4:	00f00b13          	li	s6,15
  4001e8:	0280006f          	j	400210 <printString+0x6c>
  4001ec:	00040613          	mv	a2,s0
  4001f0:	00998533          	add	a0,s3,s1
  4001f4:	f81ff0ef          	jal	400174 <putch>
  4001f8:	06050263          	beqz	a0,40025c <printString+0xb8>
  4001fc:	00148493          	addi	s1,s1,1
  400200:	015a1863          	bne	s4,s5,400210 <printString+0x6c>
  400204:	00140413          	addi	s0,s0,1
  400208:	0ff47413          	zext.b	s0,s0
  40020c:	048b6463          	bltu	s6,s0,400254 <printString+0xb0>
  400210:	009907b3          	add	a5,s2,s1
  400214:	0007c583          	lbu	a1,0(a5)
  400218:	00048513          	mv	a0,s1
  40021c:	fc0598e3          	bnez	a1,4001ec <printString+0x48>
  400220:	01c12083          	lw	ra,28(sp)
  400224:	01812403          	lw	s0,24(sp)
  400228:	01412483          	lw	s1,20(sp)
  40022c:	01012903          	lw	s2,16(sp)
  400230:	00c12983          	lw	s3,12(sp)
  400234:	00812a03          	lw	s4,8(sp)
  400238:	00412a83          	lw	s5,4(sp)
  40023c:	00012b03          	lw	s6,0(sp)
  400240:	02010113          	addi	sp,sp,32
  400244:	00008067          	ret
  400248:	00100a13          	li	s4,1
  40024c:	00100413          	li	s0,1
  400250:	f8dff06f          	j	4001dc <printString+0x38>
  400254:	00100413          	li	s0,1
  400258:	fb9ff06f          	j	400210 <printString+0x6c>
  40025c:	00000513          	li	a0,0
  400260:	fc1ff06f          	j	400220 <printString+0x7c>

00400264 <printHex>:
  400264:	fd010113          	addi	sp,sp,-48
  400268:	02812423          	sw	s0,40(sp)
  40026c:	00058413          	mv	s0,a1
  400270:	004015b7          	lui	a1,0x401
  400274:	02912223          	sw	s1,36(sp)
  400278:	03212023          	sw	s2,32(sp)
  40027c:	00050493          	mv	s1,a0
  400280:	00060913          	mv	s2,a2
  400284:	ab058593          	addi	a1,a1,-1360 # 400ab0 <_etext+0x204>
  400288:	01100613          	li	a2,17
  40028c:	00c10513          	addi	a0,sp,12
  400290:	02112623          	sw	ra,44(sp)
  400294:	e71ff0ef          	jal	400104 <memcpy>
  400298:	202027b7          	lui	a5,0x20202
  40029c:	02078793          	addi	a5,a5,32 # 20202020 <_stack_end+0x1fe00020>
  4002a0:	00f12023          	sw	a5,0(sp)
  4002a4:	00f12223          	sw	a5,4(sp)
  4002a8:	00010423          	sb	zero,8(sp)
  4002ac:	00700793          	li	a5,7
  4002b0:	fff00693          	li	a3,-1
  4002b4:	00f47713          	andi	a4,s0,15
  4002b8:	02070713          	addi	a4,a4,32
  4002bc:	00270733          	add	a4,a4,sp
  4002c0:	fec74703          	lbu	a4,-20(a4)
  4002c4:	00f10633          	add	a2,sp,a5
  4002c8:	fff78793          	addi	a5,a5,-1
  4002cc:	00e60023          	sb	a4,0(a2)
  4002d0:	40445413          	srai	s0,s0,0x4
  4002d4:	fed790e3          	bne	a5,a3,4002b4 <printHex+0x50>
  4002d8:	00090613          	mv	a2,s2
  4002dc:	00010593          	mv	a1,sp
  4002e0:	00048513          	mv	a0,s1
  4002e4:	ec1ff0ef          	jal	4001a4 <printString>
  4002e8:	02c12083          	lw	ra,44(sp)
  4002ec:	02812403          	lw	s0,40(sp)
  4002f0:	02412483          	lw	s1,36(sp)
  4002f4:	02012903          	lw	s2,32(sp)
  4002f8:	0ff57513          	zext.b	a0,a0
  4002fc:	03010113          	addi	sp,sp,48
  400300:	00008067          	ret

00400304 <printDec>:
  400304:	fd010113          	addi	sp,sp,-48
  400308:	02812423          	sw	s0,40(sp)
  40030c:	00058413          	mv	s0,a1
  400310:	004015b7          	lui	a1,0x401
  400314:	02912223          	sw	s1,36(sp)
  400318:	03212023          	sw	s2,32(sp)
  40031c:	00050493          	mv	s1,a0
  400320:	00060913          	mv	s2,a2
  400324:	89858593          	addi	a1,a1,-1896 # 400898 <resetScreenVector+0x114>
  400328:	01400613          	li	a2,20
  40032c:	00c10513          	addi	a0,sp,12
  400330:	02112623          	sw	ra,44(sp)
  400334:	dd1ff0ef          	jal	400104 <memcpy>
  400338:	000187b7          	lui	a5,0x18
  40033c:	69f78793          	addi	a5,a5,1695 # 1869f <_stack_size+0x1809f>
  400340:	0287fa63          	bgeu	a5,s0,400374 <printDec+0x70>
  400344:	004015b7          	lui	a1,0x401
  400348:	00090613          	mv	a2,s2
  40034c:	ac458593          	addi	a1,a1,-1340 # 400ac4 <_etext+0x218>
  400350:	00048513          	mv	a0,s1
  400354:	e51ff0ef          	jal	4001a4 <printString>
  400358:	02c12083          	lw	ra,44(sp)
  40035c:	02812403          	lw	s0,40(sp)
  400360:	02412483          	lw	s1,36(sp)
  400364:	02012903          	lw	s2,32(sp)
  400368:	0ff57513          	zext.b	a0,a0
  40036c:	03010113          	addi	sp,sp,48
  400370:	00008067          	ret
  400374:	00c10713          	addi	a4,sp,12
  400378:	00100613          	li	a2,1
  40037c:	00000793          	li	a5,0
  400380:	00100513          	li	a0,1
  400384:	00072583          	lw	a1,0(a4)
  400388:	00000693          	li	a3,0
  40038c:	06b47263          	bgeu	s0,a1,4003f0 <printDec+0xec>
  400390:	00069663          	bnez	a3,40039c <printDec+0x98>
  400394:	00a58463          	beq	a1,a0,40039c <printDec+0x98>
  400398:	00061e63          	bnez	a2,4003b4 <printDec+0xb0>
  40039c:	02078613          	addi	a2,a5,32
  4003a0:	00260633          	add	a2,a2,sp
  4003a4:	03068693          	addi	a3,a3,48
  4003a8:	fed60223          	sb	a3,-28(a2)
  4003ac:	00178793          	addi	a5,a5,1
  4003b0:	00000613          	li	a2,0
  4003b4:	00470713          	addi	a4,a4,4
  4003b8:	02010693          	addi	a3,sp,32
  4003bc:	fcd714e3          	bne	a4,a3,400384 <printDec+0x80>
  4003c0:	00060c63          	beqz	a2,4003d8 <printDec+0xd4>
  4003c4:	02078713          	addi	a4,a5,32
  4003c8:	00270733          	add	a4,a4,sp
  4003cc:	03000693          	li	a3,48
  4003d0:	fed70223          	sb	a3,-28(a4)
  4003d4:	00178793          	addi	a5,a5,1
  4003d8:	02078793          	addi	a5,a5,32
  4003dc:	002787b3          	add	a5,a5,sp
  4003e0:	fe078223          	sb	zero,-28(a5)
  4003e4:	00090613          	mv	a2,s2
  4003e8:	00410593          	addi	a1,sp,4
  4003ec:	f65ff06f          	j	400350 <printDec+0x4c>
  4003f0:	40b40433          	sub	s0,s0,a1
  4003f4:	00168693          	addi	a3,a3,1
  4003f8:	f95ff06f          	j	40038c <printDec+0x88>

004003fc <printf>:
  4003fc:	fa010113          	addi	sp,sp,-96
  400400:	04f12a23          	sw	a5,84(sp)
  400404:	04410793          	addi	a5,sp,68
  400408:	02812c23          	sw	s0,56(sp)
  40040c:	02912a23          	sw	s1,52(sp)
  400410:	03212823          	sw	s2,48(sp)
  400414:	03312623          	sw	s3,44(sp)
  400418:	03412423          	sw	s4,40(sp)
  40041c:	03512223          	sw	s5,36(sp)
  400420:	03612023          	sw	s6,32(sp)
  400424:	01712e23          	sw	s7,28(sp)
  400428:	01912a23          	sw	s9,20(sp)
  40042c:	02112e23          	sw	ra,60(sp)
  400430:	01812c23          	sw	s8,24(sp)
  400434:	00050493          	mv	s1,a0
  400438:	04b12223          	sw	a1,68(sp)
  40043c:	04c12423          	sw	a2,72(sp)
  400440:	04d12623          	sw	a3,76(sp)
  400444:	04e12823          	sw	a4,80(sp)
  400448:	05012c23          	sw	a6,88(sp)
  40044c:	05112e23          	sw	a7,92(sp)
  400450:	00f12623          	sw	a5,12(sp)
  400454:	00000c93          	li	s9,0
  400458:	00401437          	lui	s0,0x401
  40045c:	00a00913          	li	s2,10
  400460:	02500993          	li	s3,37
  400464:	07800a13          	li	s4,120
  400468:	06400a93          	li	s5,100
  40046c:	06300b13          	li	s6,99
  400470:	07300b93          	li	s7,115
  400474:	019487b3          	add	a5,s1,s9
  400478:	0007c583          	lbu	a1,0(a5)
  40047c:	aca41503          	lh	a0,-1334(s0) # 400aca <screenPos>
  400480:	02059c63          	bnez	a1,4004b8 <printf+0xbc>
  400484:	03c12083          	lw	ra,60(sp)
  400488:	03812403          	lw	s0,56(sp)
  40048c:	03412483          	lw	s1,52(sp)
  400490:	03012903          	lw	s2,48(sp)
  400494:	02c12983          	lw	s3,44(sp)
  400498:	02812a03          	lw	s4,40(sp)
  40049c:	02412a83          	lw	s5,36(sp)
  4004a0:	02012b03          	lw	s6,32(sp)
  4004a4:	01c12b83          	lw	s7,28(sp)
  4004a8:	01812c03          	lw	s8,24(sp)
  4004ac:	01412c83          	lw	s9,20(sp)
  4004b0:	06010113          	addi	sp,sp,96
  4004b4:	00008067          	ret
  4004b8:	001c8c13          	addi	s8,s9,1
  4004bc:	01259e63          	bne	a1,s2,4004d8 <printf+0xdc>
  4004c0:	fc057793          	andi	a5,a0,-64
  4004c4:	04078793          	addi	a5,a5,64
  4004c8:	01079793          	slli	a5,a5,0x10
  4004cc:	4107d793          	srai	a5,a5,0x10
  4004d0:	000c8c13          	mv	s8,s9
  4004d4:	0380006f          	j	40050c <printf+0x110>
  4004d8:	0d359063          	bne	a1,s3,400598 <printf+0x19c>
  4004dc:	0017c783          	lbu	a5,1(a5)
  4004e0:	03479c63          	bne	a5,s4,400518 <printf+0x11c>
  4004e4:	00c12783          	lw	a5,12(sp)
  4004e8:	00f00613          	li	a2,15
  4004ec:	0007a583          	lw	a1,0(a5)
  4004f0:	00478713          	addi	a4,a5,4
  4004f4:	00e12623          	sw	a4,12(sp)
  4004f8:	d6dff0ef          	jal	400264 <printHex>
  4004fc:	aca45783          	lhu	a5,-1334(s0)
  400500:	00f507b3          	add	a5,a0,a5
  400504:	01079793          	slli	a5,a5,0x10
  400508:	4107d793          	srai	a5,a5,0x10
  40050c:	acf41523          	sh	a5,-1334(s0)
  400510:	001c0c93          	addi	s9,s8,1
  400514:	f61ff06f          	j	400474 <printf+0x78>
  400518:	03579063          	bne	a5,s5,400538 <printf+0x13c>
  40051c:	00c12783          	lw	a5,12(sp)
  400520:	00f00613          	li	a2,15
  400524:	0007a583          	lw	a1,0(a5)
  400528:	00478713          	addi	a4,a5,4
  40052c:	00e12623          	sw	a4,12(sp)
  400530:	dd5ff0ef          	jal	400304 <printDec>
  400534:	fc9ff06f          	j	4004fc <printf+0x100>
  400538:	03679463          	bne	a5,s6,400560 <printf+0x164>
  40053c:	00c12783          	lw	a5,12(sp)
  400540:	00f00613          	li	a2,15
  400544:	0007c583          	lbu	a1,0(a5)
  400548:	00478713          	addi	a4,a5,4
  40054c:	00e12623          	sw	a4,12(sp)
  400550:	c25ff0ef          	jal	400174 <putch>
  400554:	aca45783          	lhu	a5,-1334(s0)
  400558:	00178793          	addi	a5,a5,1
  40055c:	fa9ff06f          	j	400504 <printf+0x108>
  400560:	03779063          	bne	a5,s7,400580 <printf+0x184>
  400564:	00c12783          	lw	a5,12(sp)
  400568:	00f00613          	li	a2,15
  40056c:	0007a583          	lw	a1,0(a5)
  400570:	00478713          	addi	a4,a5,4
  400574:	00e12623          	sw	a4,12(sp)
  400578:	c2dff0ef          	jal	4001a4 <printString>
  40057c:	f81ff06f          	j	4004fc <printf+0x100>
  400580:	00f00613          	li	a2,15
  400584:	02500593          	li	a1,37
  400588:	bedff0ef          	jal	400174 <putch>
  40058c:	aca45783          	lhu	a5,-1334(s0)
  400590:	00178793          	addi	a5,a5,1
  400594:	f35ff06f          	j	4004c8 <printf+0xcc>
  400598:	00f00613          	li	a2,15
  40059c:	fedff06f          	j	400588 <printf+0x18c>

004005a0 <printfSCR>:
  4005a0:	f9010113          	addi	sp,sp,-112
  4005a4:	06f12223          	sw	a5,100(sp)
  4005a8:	05c10793          	addi	a5,sp,92
  4005ac:	04812423          	sw	s0,72(sp)
  4005b0:	04912223          	sw	s1,68(sp)
  4005b4:	05212023          	sw	s2,64(sp)
  4005b8:	03412c23          	sw	s4,56(sp)
  4005bc:	03512a23          	sw	s5,52(sp)
  4005c0:	03612823          	sw	s6,48(sp)
  4005c4:	03712623          	sw	s7,44(sp)
  4005c8:	03812423          	sw	s8,40(sp)
  4005cc:	03912223          	sw	s9,36(sp)
  4005d0:	03a12023          	sw	s10,32(sp)
  4005d4:	01b12e23          	sw	s11,28(sp)
  4005d8:	04112623          	sw	ra,76(sp)
  4005dc:	03312e23          	sw	s3,60(sp)
  4005e0:	00050a93          	mv	s5,a0
  4005e4:	00058493          	mv	s1,a1
  4005e8:	00060a13          	mv	s4,a2
  4005ec:	04d12e23          	sw	a3,92(sp)
  4005f0:	06e12023          	sw	a4,96(sp)
  4005f4:	07012423          	sw	a6,104(sp)
  4005f8:	07112623          	sw	a7,108(sp)
  4005fc:	00f12623          	sw	a5,12(sp)
  400600:	00000913          	li	s2,0
  400604:	00000413          	li	s0,0
  400608:	00a00b13          	li	s6,10
  40060c:	02500b93          	li	s7,37
  400610:	07800c13          	li	s8,120
  400614:	06400c93          	li	s9,100
  400618:	06300d13          	li	s10,99
  40061c:	07300d93          	li	s11,115
  400620:	012a07b3          	add	a5,s4,s2
  400624:	0007c583          	lbu	a1,0(a5)
  400628:	04059263          	bnez	a1,40066c <printfSCR+0xcc>
  40062c:	04c12083          	lw	ra,76(sp)
  400630:	00040513          	mv	a0,s0
  400634:	04812403          	lw	s0,72(sp)
  400638:	04412483          	lw	s1,68(sp)
  40063c:	04012903          	lw	s2,64(sp)
  400640:	03c12983          	lw	s3,60(sp)
  400644:	03812a03          	lw	s4,56(sp)
  400648:	03412a83          	lw	s5,52(sp)
  40064c:	03012b03          	lw	s6,48(sp)
  400650:	02c12b83          	lw	s7,44(sp)
  400654:	02812c03          	lw	s8,40(sp)
  400658:	02412c83          	lw	s9,36(sp)
  40065c:	02012d03          	lw	s10,32(sp)
  400660:	01c12d83          	lw	s11,28(sp)
  400664:	07010113          	addi	sp,sp,112
  400668:	00008067          	ret
  40066c:	00190993          	addi	s3,s2,1
  400670:	01659a63          	bne	a1,s6,400684 <printfSCR+0xe4>
  400674:	fc047413          	andi	s0,s0,-64
  400678:	04040413          	addi	s0,s0,64
  40067c:	00090993          	mv	s3,s2
  400680:	0740006f          	j	4006f4 <printfSCR+0x154>
  400684:	01540533          	add	a0,s0,s5
  400688:	0b759463          	bne	a1,s7,400730 <printfSCR+0x190>
  40068c:	0017c783          	lbu	a5,1(a5)
  400690:	03879263          	bne	a5,s8,4006b4 <printfSCR+0x114>
  400694:	00c12783          	lw	a5,12(sp)
  400698:	00048613          	mv	a2,s1
  40069c:	0007a583          	lw	a1,0(a5)
  4006a0:	00478713          	addi	a4,a5,4
  4006a4:	00e12623          	sw	a4,12(sp)
  4006a8:	bbdff0ef          	jal	400264 <printHex>
  4006ac:	00a40433          	add	s0,s0,a0
  4006b0:	0440006f          	j	4006f4 <printfSCR+0x154>
  4006b4:	03979063          	bne	a5,s9,4006d4 <printfSCR+0x134>
  4006b8:	00c12783          	lw	a5,12(sp)
  4006bc:	00048613          	mv	a2,s1
  4006c0:	0007a583          	lw	a1,0(a5)
  4006c4:	00478713          	addi	a4,a5,4
  4006c8:	00e12623          	sw	a4,12(sp)
  4006cc:	c39ff0ef          	jal	400304 <printDec>
  4006d0:	fddff06f          	j	4006ac <printfSCR+0x10c>
  4006d4:	03a79463          	bne	a5,s10,4006fc <printfSCR+0x15c>
  4006d8:	00c12783          	lw	a5,12(sp)
  4006dc:	00048613          	mv	a2,s1
  4006e0:	00140413          	addi	s0,s0,1
  4006e4:	0007c583          	lbu	a1,0(a5)
  4006e8:	00478713          	addi	a4,a5,4
  4006ec:	00e12623          	sw	a4,12(sp)
  4006f0:	a85ff0ef          	jal	400174 <putch>
  4006f4:	00198913          	addi	s2,s3,1
  4006f8:	f29ff06f          	j	400620 <printfSCR+0x80>
  4006fc:	03b79063          	bne	a5,s11,40071c <printfSCR+0x17c>
  400700:	00c12783          	lw	a5,12(sp)
  400704:	00048613          	mv	a2,s1
  400708:	0007a583          	lw	a1,0(a5)
  40070c:	00478713          	addi	a4,a5,4
  400710:	00e12623          	sw	a4,12(sp)
  400714:	a91ff0ef          	jal	4001a4 <printString>
  400718:	f95ff06f          	j	4006ac <printfSCR+0x10c>
  40071c:	00048613          	mv	a2,s1
  400720:	02500593          	li	a1,37
  400724:	a51ff0ef          	jal	400174 <putch>
  400728:	00140413          	addi	s0,s0,1
  40072c:	f51ff06f          	j	40067c <printfSCR+0xdc>
  400730:	00048613          	mv	a2,s1
  400734:	ff1ff06f          	j	400724 <printfSCR+0x184>

00400738 <clearScreen>:
  400738:	ff010113          	addi	sp,sp,-16
  40073c:	00812423          	sw	s0,8(sp)
  400740:	00912223          	sw	s1,4(sp)
  400744:	00112623          	sw	ra,12(sp)
  400748:	00000413          	li	s0,0
  40074c:	4c000493          	li	s1,1216
  400750:	00040513          	mv	a0,s0
  400754:	00f00613          	li	a2,15
  400758:	02000593          	li	a1,32
  40075c:	00140413          	addi	s0,s0,1
  400760:	a15ff0ef          	jal	400174 <putch>
  400764:	fe9416e3          	bne	s0,s1,400750 <clearScreen+0x18>
  400768:	00c12083          	lw	ra,12(sp)
  40076c:	00812403          	lw	s0,8(sp)
  400770:	004017b7          	lui	a5,0x401
  400774:	ac079523          	sh	zero,-1334(a5) # 400aca <screenPos>
  400778:	00412483          	lw	s1,4(sp)
  40077c:	01010113          	addi	sp,sp,16
  400780:	00008067          	ret

00400784 <resetScreenVector>:
  400784:	004017b7          	lui	a5,0x401
  400788:	ac079523          	sh	zero,-1334(a5) # 400aca <screenPos>
  40078c:	00008067          	ret
  400790:	0070                	.insn	2, 0x0070
  400792:	0040                	.insn	2, 0x0040
  400794:	0070                	.insn	2, 0x0070
  400796:	0040                	.insn	2, 0x0040
  400798:	0070                	.insn	2, 0x0070
  40079a:	0040                	.insn	2, 0x0040
  40079c:	0070                	.insn	2, 0x0070
  40079e:	0040                	.insn	2, 0x0040
  4007a0:	0070                	.insn	2, 0x0070
  4007a2:	0040                	.insn	2, 0x0040
  4007a4:	0070                	.insn	2, 0x0070
  4007a6:	0040                	.insn	2, 0x0040
  4007a8:	0070                	.insn	2, 0x0070
  4007aa:	0040                	.insn	2, 0x0040
  4007ac:	0070                	.insn	2, 0x0070
  4007ae:	0040                	.insn	2, 0x0040
  4007b0:	0070                	.insn	2, 0x0070
  4007b2:	0040                	.insn	2, 0x0040
  4007b4:	0070                	.insn	2, 0x0070
  4007b6:	0040                	.insn	2, 0x0040
  4007b8:	0070                	.insn	2, 0x0070
  4007ba:	0040                	.insn	2, 0x0040
  4007bc:	0070                	.insn	2, 0x0070
  4007be:	0040                	.insn	2, 0x0040
  4007c0:	0070                	.insn	2, 0x0070
  4007c2:	0040                	.insn	2, 0x0040
  4007c4:	0070                	.insn	2, 0x0070
  4007c6:	0040                	.insn	2, 0x0040
  4007c8:	0070                	.insn	2, 0x0070
  4007ca:	0040                	.insn	2, 0x0040
  4007cc:	0070                	.insn	2, 0x0070
  4007ce:	0040                	.insn	2, 0x0040
  4007d0:	0070                	.insn	2, 0x0070
  4007d2:	0040                	.insn	2, 0x0040
  4007d4:	0070                	.insn	2, 0x0070
  4007d6:	0040                	.insn	2, 0x0040
  4007d8:	0070                	.insn	2, 0x0070
  4007da:	0040                	.insn	2, 0x0040
  4007dc:	0070                	.insn	2, 0x0070
  4007de:	0040                	.insn	2, 0x0040
  4007e0:	0070                	.insn	2, 0x0070
  4007e2:	0040                	.insn	2, 0x0040
  4007e4:	0070                	.insn	2, 0x0070
  4007e6:	0040                	.insn	2, 0x0040
  4007e8:	0070                	.insn	2, 0x0070
  4007ea:	0040                	.insn	2, 0x0040
  4007ec:	0070                	.insn	2, 0x0070
  4007ee:	0040                	.insn	2, 0x0040
  4007f0:	0070                	.insn	2, 0x0070
  4007f2:	0040                	.insn	2, 0x0040
  4007f4:	0070                	.insn	2, 0x0070
  4007f6:	0040                	.insn	2, 0x0040
  4007f8:	007c                	.insn	2, 0x007c
  4007fa:	0040                	.insn	2, 0x0040
  4007fc:	007c                	.insn	2, 0x007c
  4007fe:	0040                	.insn	2, 0x0040
  400800:	007c                	.insn	2, 0x007c
  400802:	0040                	.insn	2, 0x0040
  400804:	007c                	.insn	2, 0x007c
  400806:	0040                	.insn	2, 0x0040
  400808:	007c                	.insn	2, 0x007c
  40080a:	0040                	.insn	2, 0x0040
  40080c:	007c                	.insn	2, 0x007c
  40080e:	0040                	.insn	2, 0x0040
  400810:	007c                	.insn	2, 0x007c
  400812:	0040                	.insn	2, 0x0040
  400814:	007c                	.insn	2, 0x007c
  400816:	0040                	.insn	2, 0x0040
  400818:	007c                	.insn	2, 0x007c
  40081a:	0040                	.insn	2, 0x0040
  40081c:	007c                	.insn	2, 0x007c
  40081e:	0040                	.insn	2, 0x0040
  400820:	00fc                	.insn	2, 0x00fc
  400822:	0040                	.insn	2, 0x0040
  400824:	0084                	.insn	2, 0x0084
  400826:	0040                	.insn	2, 0x0040
  400828:	008c                	.insn	2, 0x008c
  40082a:	0040                	.insn	2, 0x0040
  40082c:	0094                	.insn	2, 0x0094
  40082e:	0040                	.insn	2, 0x0040
  400830:	009c                	.insn	2, 0x009c
  400832:	0040                	.insn	2, 0x0040
  400834:	0100                	.insn	2, 0x0100
  400836:	0040                	.insn	2, 0x0040
  400838:	00a4                	.insn	2, 0x00a4
  40083a:	0040                	.insn	2, 0x0040
  40083c:	00ac                	.insn	2, 0x00ac
  40083e:	0040                	.insn	2, 0x0040
  400840:	00b4                	.insn	2, 0x00b4
  400842:	0040                	.insn	2, 0x0040
  400844:	00bc                	.insn	2, 0x00bc
  400846:	0040                	.insn	2, 0x0040
  400848:	0068                	.insn	2, 0x0068
  40084a:	0040                	.insn	2, 0x0040
  40084c:	00c4                	.insn	2, 0x00c4
  40084e:	0040                	.insn	2, 0x0040
  400850:	00cc                	.insn	2, 0x00cc
  400852:	0040                	.insn	2, 0x0040
  400854:	00d4                	.insn	2, 0x00d4
  400856:	0040                	.insn	2, 0x0040
  400858:	00dc                	.insn	2, 0x00dc
  40085a:	0040                	.insn	2, 0x0040
  40085c:	00e4                	.insn	2, 0x00e4
  40085e:	0040                	.insn	2, 0x0040
  400860:	00ec                	.insn	2, 0x00ec
  400862:	0040                	.insn	2, 0x0040
  400864:	0068                	.insn	2, 0x0068
  400866:	0040                	.insn	2, 0x0040
  400868:	00f4                	.insn	2, 0x00f4
  40086a:	0040                	.insn	2, 0x0040
  40086c:	00f4                	.insn	2, 0x00f4
  40086e:	0040                	.insn	2, 0x0040
  400870:	00f4                	.insn	2, 0x00f4
  400872:	0040                	.insn	2, 0x0040
  400874:	00f4                	.insn	2, 0x00f4
  400876:	0040                	.insn	2, 0x0040
  400878:	00f4                	.insn	2, 0x00f4
  40087a:	0040                	.insn	2, 0x0040
  40087c:	00f4                	.insn	2, 0x00f4
  40087e:	0040                	.insn	2, 0x0040
  400880:	00f4                	.insn	2, 0x00f4
  400882:	0040                	.insn	2, 0x0040
  400884:	00f4                	.insn	2, 0x00f4
  400886:	0040                	.insn	2, 0x0040
  400888:	00f4                	.insn	2, 0x00f4
  40088a:	0040                	.insn	2, 0x0040
  40088c:	00f4                	.insn	2, 0x00f4
  40088e:	0040                	.insn	2, 0x0040
  400890:	00f4                	.insn	2, 0x00f4
  400892:	0040                	.insn	2, 0x0040
  400894:	00f4                	.insn	2, 0x00f4
  400896:	0040                	.insn	2, 0x0040
  400898:	2710                	.insn	2, 0x2710
  40089a:	0000                	.insn	2, 0x
  40089c:	03e8                	.insn	2, 0x03e8
  40089e:	0000                	.insn	2, 0x
  4008a0:	0064                	.insn	2, 0x0064
  4008a2:	0000                	.insn	2, 0x
  4008a4:	000a                	.insn	2, 0x000a
  4008a6:	0000                	.insn	2, 0x
  4008a8:	0001                	.insn	2, 0x0001
	...

Disassembly of section .text.startup:

004008ac <main>:
  4008ac:	00401537          	lui	a0,0x401
  4008b0:	fa010113          	addi	sp,sp,-96
  4008b4:	a7450513          	addi	a0,a0,-1420 # 400a74 <main+0x1c8>
  4008b8:	04812c23          	sw	s0,88(sp)
  4008bc:	05312623          	sw	s3,76(sp)
  4008c0:	05412423          	sw	s4,72(sp)
  4008c4:	05512223          	sw	s5,68(sp)
  4008c8:	05612023          	sw	s6,64(sp)
  4008cc:	03712e23          	sw	s7,60(sp)
  4008d0:	03812c23          	sw	s8,56(sp)
  4008d4:	03912a23          	sw	s9,52(sp)
  4008d8:	03a12823          	sw	s10,48(sp)
  4008dc:	03b12623          	sw	s11,44(sp)
  4008e0:	04112e23          	sw	ra,92(sp)
  4008e4:	04912a23          	sw	s1,84(sp)
  4008e8:	05212823          	sw	s2,80(sp)
  4008ec:	000189b7          	lui	s3,0x18
  4008f0:	b0dff0ef          	jal	4003fc <printf>
  4008f4:	10000a37          	lui	s4,0x10000
  4008f8:	00000a93          	li	s5,0
  4008fc:	00000413          	li	s0,0
  400900:	00000713          	li	a4,0
  400904:	00000d93          	li	s11,0
  400908:	69f98993          	addi	s3,s3,1695 # 1869f <_stack_size+0x1809f>
  40090c:	001a0a13          	addi	s4,s4,1 # 10000001 <_stack_end+0xfbfe001>
  400910:	00401bb7          	lui	s7,0x401
  400914:	00100c13          	li	s8,1
  400918:	00200c93          	li	s9,2
  40091c:	00401b37          	lui	s6,0x401
  400920:	10000d37          	lui	s10,0x10000
  400924:	00012e23          	sw	zero,28(sp)
  400928:	01c12783          	lw	a5,28(sp)
  40092c:	08f9de63          	bge	s3,a5,4009c8 <main+0x11c>
  400930:	000a4783          	lbu	a5,0(s4)
  400934:	0ff7f913          	zext.b	s2,a5
  400938:	00f70c63          	beq	a4,a5,400950 <main+0xa4>
  40093c:	dfdff0ef          	jal	400738 <clearScreen>
  400940:	00090593          	mv	a1,s2
  400944:	a80b8513          	addi	a0,s7,-1408 # 400a80 <main+0x1d4>
  400948:	ab5ff0ef          	jal	4003fc <printf>
  40094c:	04000413          	li	s0,64
  400950:	06090863          	beqz	s2,4009c0 <main+0x114>
  400954:	0d891e63          	bne	s2,s8,400a30 <main+0x184>
  400958:	018dd513          	srli	a0,s11,0x18
  40095c:	ee4ff0ef          	jal	400040 <USBParser>
  400960:	000d2d83          	lw	s11,0(s10) # 10000000 <_stack_end+0xfbfe000>
  400964:	00050493          	mv	s1,a0
  400968:	04050a63          	beqz	a0,4009bc <main+0x110>
  40096c:	05550863          	beq	a0,s5,4009bc <main+0x110>
  400970:	01041a93          	slli	s5,s0,0x10
  400974:	00800793          	li	a5,8
  400978:	010ada93          	srli	s5,s5,0x10
  40097c:	04f51e63          	bne	a0,a5,4009d8 <main+0x12c>
  400980:	00f00613          	li	a2,15
  400984:	02000593          	li	a1,32
  400988:	00140513          	addi	a0,s0,1
  40098c:	fe8ff0ef          	jal	400174 <putch>
  400990:	00f00613          	li	a2,15
  400994:	05f00593          	li	a1,95
  400998:	00040513          	mv	a0,s0
  40099c:	fd8ff0ef          	jal	400174 <putch>
  4009a0:	fff40513          	addi	a0,s0,-1
  4009a4:	00000613          	li	a2,0
  4009a8:	02000593          	li	a1,32
  4009ac:	fc8ff0ef          	jal	400174 <putch>
  4009b0:	40aa8433          	sub	s0,s5,a0
  4009b4:	01041413          	slli	s0,s0,0x10
  4009b8:	41045413          	srai	s0,s0,0x10
  4009bc:	00048a93          	mv	s5,s1
  4009c0:	00090713          	mv	a4,s2
  4009c4:	f61ff06f          	j	400924 <main+0x78>
  4009c8:	01c12783          	lw	a5,28(sp)
  4009cc:	00178793          	addi	a5,a5,1
  4009d0:	00f12e23          	sw	a5,28(sp)
  4009d4:	f55ff06f          	j	400928 <main+0x7c>
  4009d8:	00a00793          	li	a5,10
  4009dc:	02f51263          	bne	a0,a5,400a00 <main+0x154>
  4009e0:	00040513          	mv	a0,s0
  4009e4:	00000613          	li	a2,0
  4009e8:	02000593          	li	a1,32
  4009ec:	f88ff0ef          	jal	400174 <putch>
  4009f0:	40aa8433          	sub	s0,s5,a0
  4009f4:	fc047413          	andi	s0,s0,-64
  4009f8:	04040413          	addi	s0,s0,64
  4009fc:	fb9ff06f          	j	4009b4 <main+0x108>
  400a00:	00050593          	mv	a1,a0
  400a04:	00f00613          	li	a2,15
  400a08:	00040513          	mv	a0,s0
  400a0c:	f68ff0ef          	jal	400174 <putch>
  400a10:	01550433          	add	s0,a0,s5
  400a14:	01041413          	slli	s0,s0,0x10
  400a18:	41045413          	srai	s0,s0,0x10
  400a1c:	00f00613          	li	a2,15
  400a20:	05f00593          	li	a1,95
  400a24:	00040513          	mv	a0,s0
  400a28:	f4cff0ef          	jal	400174 <putch>
  400a2c:	f91ff06f          	j	4009bc <main+0x110>
  400a30:	f99918e3          	bne	s2,s9,4009c0 <main+0x114>
  400a34:	010dd513          	srli	a0,s11,0x10
  400a38:	0ff57513          	zext.b	a0,a0
  400a3c:	e04ff0ef          	jal	400040 <USBParser>
  400a40:	00a12623          	sw	a0,12(sp)
  400a44:	008dd513          	srli	a0,s11,0x8
  400a48:	0ff57513          	zext.b	a0,a0
  400a4c:	df4ff0ef          	jal	400040 <USBParser>
  400a50:	00a12423          	sw	a0,8(sp)
  400a54:	0ffdf513          	zext.b	a0,s11
  400a58:	de8ff0ef          	jal	400040 <USBParser>
  400a5c:	00812603          	lw	a2,8(sp)
  400a60:	00c12583          	lw	a1,12(sp)
  400a64:	00050693          	mv	a3,a0
  400a68:	a8cb0513          	addi	a0,s6,-1396 # 400a8c <main+0x1e0>
  400a6c:	991ff0ef          	jal	4003fc <printf>
  400a70:	f51ff06f          	j	4009c0 <main+0x114>
